librtengine.so:KLTChangeTCPyramid
librtengine.so:KLTCountRemainingFeatures
librtengine.so:KLTCreateFeatureHistory
librtengine.so:KLTCreateFeatureList
librtengine.so:KLTCreateFeatureTable
librtengine.so:KLTCreateTrackingContext
librtengine.so:KLTExtractFeatureHistory
librtengine.so:KLTExtractFeatureList
librtengine.so:KLTFreeFeatureHistory
librtengine.so:KLTFreeFeatureList
librtengine.so:KLTFreeFeatureTable
librtengine.so:KLTFreeTrackingContext
librtengine.so:KLTPrintTrackingContext
librtengine.so:KLTReadFeatureHistory
librtengine.so:KLTReadFeatureList
librtengine.so:KLTReadFeatureTable
librtengine.so:KLTReplaceLostFeatures
librtengine.so:KLTSelectGoodFeatures
librtengine.so:KLTSetVerbosity
librtengine.so:KLTStopSequentialMode
librtengine.so:KLTStoreFeatureHistory
librtengine.so:KLTStoreFeatureList
librtengine.so:KLTTrackFeatures
librtengine.so:KLTUpdateTCBorder
librtengine.so:KLTWriteFeatureHistory
librtengine.so:KLTWriteFeatureList
librtengine.so:KLTWriteFeatureListToPPM
librtengine.so:KLTWriteFeatureTable
librtengine.so:_KLTComputeSmoothSigma
librtengine.so:_KLTCreateFloatImage
librtengine.so:_KLTFreeFloatImage
librtengine.so:_KLTPrintSubFloatImage
librtengine.so:_KLTWriteAbsFloatImageToPGM
librtengine.so:_KLTWriteFloatImageToPGM
librtengine.so:_Z10KLTWarningPKcz
librtengine.so:_Z10_quicksortPii
librtengine.so:_Z11pgmReadFilePKcPhPiS2_
librtengine.so:_Z12gaussianBlurPPfS0_iidS_10eGaussTypeS0_
librtengine.so:_Z12pgmWriteFilePKcPKhii
librtengine.so:_Z13my_error_exitP18jpeg_common_struct
librtengine.so:_Z13pgmReadHeaderP8_IO_FILEPiS1_S1_S1_
librtengine.so:_Z13png_read_dataP14png_struct_defPhm
librtengine.so:_Z13pnmReadHeaderP8_IO_FILEPiS1_S1_S1_
librtengine.so:_Z13ppmReadHeaderP8_IO_FILEPiS1_S1_S1_
librtengine.so:_Z13utf32_to_utf8Pwm
librtengine.so:_Z14calcDistortionPhS_iiiRd
librtengine.so:_Z14png_write_dataP14png_struct_defPhm
librtengine.so:_Z15_KLTFreePyramidP15_KLT_PyramidRec
librtengine.so:_Z15ppmWriteFileRGBPKcPKhS2_S2_ii
librtengine.so:_Z16_KLTToFloatImagePhiiP18_KLT_FloatImageRec
librtengine.so:_Z16read_icc_profileP22jpeg_decompress_structPPhPj
librtengine.so:_Z17_KLTCreatePyramidiiii
librtengine.so:_Z17pgmReadHeaderFilePKcPiS1_S1_S1_
librtengine.so:_Z17ppmReadHeaderFilePKcPiS1_S1_S1_
librtengine.so:_Z17write_icc_profileP20jpeg_compress_structPKhj
librtengine.so:_Z18_KLTComputePyramidP18_KLT_FloatImageRecP15_KLT_PyramidRecf
librtengine.so:_Z19_KLTGetKernelWidthsfPiS_
librtengine.so:_Z20_KLTComputeGradientsP18_KLT_FloatImageRecfS0_S0_
librtengine.so:_Z20imfile_set_plistenerP6IMFILEPN8rtengine16ProgressListenerEd
librtengine.so:_Z22_KLTSelectGoodFeaturesP22KLT_TrackingContextRecPhiiP18KLT_FeatureListRec13selectionMode
librtengine.so:_Z22imfile_update_progressP6IMFILE
librtengine.so:_Z22setup_read_icc_profileP22jpeg_decompress_struct
librtengine.so:_Z23SparseConjugateGradientPFvPfS_PvES_ibS_fS0_iS2_
librtengine.so:_Z24_KLTComputeSmoothedImageP18_KLT_FloatImageRecfS0_
librtengine.so:_Z5fgetsPciP6IMFILE
librtengine.so:_Z5fopenPKc
librtengine.so:_Z5fopenPji
librtengine.so:_Z6fcloseP6IMFILE
librtengine.so:_Z6fscanfP6IMFILEPKcz
librtengine.so:_Z6gfopenPKc
librtengine.so:_Z7pgmReadP8_IO_FILEPhPiS2_
librtengine.so:_Z8KLTErrorPKcz
librtengine.so:_Z8pgmWriteP8_IO_FILEPKhii
librtengine.so:_Z8ppmWriteP8_IO_FILEPKhS2_S2_ii
librtengine.so:_Z9png_flushP14png_struct_def
librtengine.so:_ZN12PreviewPropsC1Eiiiii
librtengine.so:_ZN12PreviewPropsC2Eiiiii
librtengine.so:_ZN12ProfileStore10getProfileEN4Glib7ustringE
librtengine.so:_ZN12ProfileStore10getProfileEPK17ProfileStoreEntry
librtengine.so:_ZN12ProfileStore11addListenerEP20ProfileStoreListener
librtengine.so:_ZN12ProfileStore11getFileListEv
librtengine.so:_ZN12ProfileStore11getInstanceEv
librtengine.so:_ZN12ProfileStore12findFolderIdERKN4Glib7ustringE
librtengine.so:_ZN12ProfileStore13clearFileListEv
librtengine.so:_ZN12ProfileStore13getPathFromIdEi
librtengine.so:_ZN12ProfileStore13parseProfilesEv
librtengine.so:_ZN12ProfileStore14_parseProfilesEv
librtengine.so:_ZN12ProfileStore14dumpFolderListEv
librtengine.so:_ZN12ProfileStore14removeListenerEP20ProfileStoreListener
librtengine.so:_ZN12ProfileStore15releaseFileListEv
librtengine.so:_ZN12ProfileStore16clearProfileListEv
librtengine.so:_ZN12ProfileStore17parseProfilesOnceEv
librtengine.so:_ZN12ProfileStore18loadDynamicProfileEPKN8rtengine14FramesMetaDataE
librtengine.so:_ZN12ProfileStore20getDefaultProcParamsEb
librtengine.so:_ZN12ProfileStore21findEntryFromFullPathEN4Glib7ustringE
librtengine.so:_ZN12ProfileStore22findEntryFromFullPathUEN4Glib7ustringE
librtengine.so:_ZN12ProfileStore24getDefaultPartialProfileEb
librtengine.so:_ZN12ProfileStore4initEb
librtengine.so:_ZN12ProfileStore8parseDirERN4Glib7ustringES2_S2_jhb
librtengine.so:_ZN12ProfileStoreC1Ev
librtengine.so:_ZN12ProfileStoreC2Ev
librtengine.so:_ZN12ProfileStoreD1Ev
librtengine.so:_ZN12ProfileStoreD2Ev
librtengine.so:_ZN15ImageDimensionsC1Ev
librtengine.so:_ZN15ImageDimensionsC2Ev
librtengine.so:_ZN17ProfileStoreEntry9setValuesEN4Glib7ustringE8PSE_TYPEtt
librtengine.so:_ZN17ProfileStoreEntryC1EN4Glib7ustringE8PSE_TYPEtt
librtengine.so:_ZN17ProfileStoreEntryC1Ev
librtengine.so:_ZN17ProfileStoreEntryC2EN4Glib7ustringE8PSE_TYPEtt
librtengine.so:_ZN17ProfileStoreEntryC2Ev
librtengine.so:_ZN18DynamicProfileRuleC1Ev
librtengine.so:_ZN18DynamicProfileRuleC2Ev
librtengine.so:_ZN19DynamicProfileRules10storeRulesEv
librtengine.so:_ZN19DynamicProfileRules8getRulesEv
librtengine.so:_ZN19DynamicProfileRules8setRulesERKSt6vectorI18DynamicProfileRuleSaIS1_EE
librtengine.so:_ZN19DynamicProfileRules9loadRulesEv
librtengine.so:_ZN27EdgePreservingDecomposition10CreateBlurEPfffiS0_b
librtengine.so:_ZN27EdgePreservingDecomposition18CreateIteratedBlurEPfffiiS0_
librtengine.so:_ZN27EdgePreservingDecomposition20CompressDynamicRangeEPfffffii
librtengine.so:_ZN27EdgePreservingDecompositionC1Eii
librtengine.so:_ZN27EdgePreservingDecompositionC2Eii
librtengine.so:_ZN27EdgePreservingDecompositionD1Ev
librtengine.so:_ZN27EdgePreservingDecompositionD2Ev
librtengine.so:_ZN28MultiDiagonalSymmetricMatrix12LazySetEntryEfii
librtengine.so:_ZN28MultiDiagonalSymmetricMatrix13VectorProductEPfS0_
librtengine.so:_ZN28MultiDiagonalSymmetricMatrix14CreateDiagonalEii
librtengine.so:_ZN28MultiDiagonalSymmetricMatrix17CholeskyBackSolveEPfS0_
librtengine.so:_ZN28MultiDiagonalSymmetricMatrix24PassThroughVectorProductEPfS0_Pv
librtengine.so:_ZN28MultiDiagonalSymmetricMatrix28PassThroughCholeskyBackSolveEPfS0_Pv
librtengine.so:_ZN28MultiDiagonalSymmetricMatrix35KillIncompleteCholeskyFactorizationEv
librtengine.so:_ZN28MultiDiagonalSymmetricMatrix37CreateIncompleteCholeskyFactorizationEi
librtengine.so:_ZN28MultiDiagonalSymmetricMatrixC1Eii
librtengine.so:_ZN28MultiDiagonalSymmetricMatrixC2Eii
librtengine.so:_ZN28MultiDiagonalSymmetricMatrixD1Ev
librtengine.so:_ZN28MultiDiagonalSymmetricMatrixD2Ev
librtengine.so:_ZN4sigc8internal10slot_call0INS_12bind_functorILin1ENS_16pointer_functor2IPN8rtengine13ProcessingJobEPNS4_23BatchProcessingListenerEvEES6_S8_NS_3nilESA_SA_SA_SA_EEvE7call_itEPNS0_8slot_repE
librtengine.so:_ZN4sigc8internal10slot_call0INS_18bound_mem_functor0IvN8rtengine17ImProcCoordinatorEEEvE7call_itEPNS0_8slot_repE
librtengine.so:_ZN4sigc8internal14typed_slot_repINS_12bind_functorILin1ENS_16pointer_functor2IPN8rtengine13ProcessingJobEPNS4_23BatchProcessingListenerEvEES6_S8_NS_3nilESA_SA_SA_SA_EEE3dupEPv
librtengine.so:_ZN4sigc8internal14typed_slot_repINS_12bind_functorILin1ENS_16pointer_functor2IPN8rtengine13ProcessingJobEPNS4_23BatchProcessingListenerEvEES6_S8_NS_3nilESA_SA_SA_SA_EEE7destroyEPv
librtengine.so:_ZN4sigc8internal14typed_slot_repINS_18bound_mem_functor0IvN8rtengine17ImProcCoordinatorEEEE3dupEPv
librtengine.so:_ZN4sigc8internal14typed_slot_repINS_18bound_mem_functor0IvN8rtengine17ImProcCoordinatorEEEE7destroyEPv
librtengine.so:_ZN5BlockC1Ejjjj
librtengine.so:_ZN5BlockC1Ev
librtengine.so:_ZN5BlockC2Ejjjj
librtengine.so:_ZN5BlockC2Ev
librtengine.so:_ZN5DCraw10apply_tiffEv
librtengine.so:_ZN5DCraw10canon_s2isEv
librtengine.so:_ZN5DCraw10fill_holesEi
librtengine.so:_ZN5DCraw10find_greenEiiii
librtengine.so:_ZN5DCraw10foveon_avgEPsPif
librtengine.so:_ZN5DCraw10jpeg_thumbEv
librtengine.so:_ZN5DCraw10ljpeg_idctEPNS_5jheadE
librtengine.so:_ZN5DCraw10minolta_z2Ev
librtengine.so:_ZN5DCraw10nikon_3700Ev
librtengine.so:_ZN5DCraw10nikon_e995Ev
librtengine.so:_ZN5DCraw10parse_ciffEiii
librtengine.so:_ZN5DCraw10parse_cineEv
librtengine.so:_ZN5DCraw10parse_exifEi
librtengine.so:_ZN5DCraw10parse_fujiEi
librtengine.so:_ZN5DCraw10parse_jpegEi
librtengine.so:_ZN5DCraw10parse_riffEv
librtengine.so:_ZN5DCraw10parse_smalEii
librtengine.so:_ZN5DCraw10parse_tiffEi
librtengine.so:_ZN5DCraw10romm_coeffEPA3_f
librtengine.so:_ZN5DCraw11adobe_coeffEPKcS1_
librtengine.so:_ZN5DCraw11foveon_getsEiPci
librtengine.so:_ZN5DCraw11foveon_huffEPt
librtengine.so:_ZN5DCraw11gamma_curveEddii
librtengine.so:_ZN5DCraw11layer_thumbEv
librtengine.so:_ZN5DCraw11ljpeg_startEPNS_5jheadEi
librtengine.so:_ZN5DCraw11nikon_e2100Ev
librtengine.so:_ZN5DCraw11pana_bits_tclEiPj
librtengine.so:_ZN5DCraw11ppm16_thumbEv
librtengine.so:_ZN5DCraw11read_shortsEPti
librtengine.so:_ZN5DCraw12cubic_splineEPKiS1_i
librtengine.so:_ZN5DCraw12foveon_fixedEPviPKc
librtengine.so:_ZN5DCraw12foveon_thumbEv
librtengine.so:_ZN5DCraw12int_to_floatEi
librtengine.so:_ZN5DCraw12linear_tableEj
librtengine.so:_ZN5DCraw12make_decoderEPKh
librtengine.so:_ZN5DCraw12parse_foveonEv
librtengine.so:_ZN5DCraw12parse_rolleiEv
librtengine.so:_ZN5DCraw12rollei_thumbEv
librtengine.so:_ZN5DCraw12simple_coeffEi
librtengine.so:_ZN5DCraw13cam_xyz_coeffEPA4_fPA3_d
librtengine.so:_ZN5DCraw13get_timestampEi
librtengine.so:_ZN5DCraw13parse_minoltaEi
librtengine.so:_ZN5DCraw13parse_redcineEv
librtengine.so:_ZN5DCraw13ph1_bithuff_tclEiPt
librtengine.so:_ZN5DCraw13pseudoinverseEPA3_dS1_i
librtengine.so:_ZN5DCraw13sony_load_rawEv
librtengine.so:_ZN5DCraw14canon_load_rawEv
librtengine.so:_ZN5DCraw14foveon_decoderEjj
librtengine.so:_ZN5DCraw14nikon_load_rawEv
librtengine.so:_ZN5DCraw14nokia_load_rawEv
librtengine.so:_ZN5DCraw14parse_sinar_iaEv
librtengine.so:_ZN5DCraw14parse_tiff_ifdEi
librtengine.so:_ZN5DCraw14sony_decrypt_tclEPjiii
librtengine.so:_ZN5DCraw15canon_600_coeffEv
librtengine.so:_ZN5DCraw15canon_600_colorEPii
librtengine.so:_ZN5DCraw15ciff_block_1030Ev
librtengine.so:_ZN5DCraw15crw_init_tablesEjPPt
librtengine.so:_ZN5DCraw15fuji_extend_redEPPti
librtengine.so:_ZN5DCraw15init_fuji_blockEPNS_21fuji_compressed_blockEPKNS_22fuji_compressed_paramsExj
librtengine.so:_ZN5DCraw15init_fuji_comprEPNS_22fuji_compressed_paramsE
librtengine.so:_ZN5DCraw15packed_load_rawEv
librtengine.so:_ZN5DCraw15parse_kodak_ifdEi
librtengine.so:_ZN5DCraw15parse_makernoteEii
librtengine.so:_ZN5DCraw15parse_phase_oneEi
librtengine.so:_ZN5DCraw15pentax_load_rawEv
librtengine.so:_ZN5DCraw15pre_interpolateEv
librtengine.so:_ZN5DCraw15rollei_load_rawEv
librtengine.so:_ZN5DCraw16adobe_copy_pixelEjjPPt
librtengine.so:_ZN5DCraw16foveon_load_camfEv
librtengine.so:_ZN5DCraw16fuji_decode_loopEPKNS_22fuji_compressed_paramsEiPxPj
librtengine.so:_ZN5DCraw16fuji_extend_blueEPPti
librtengine.so:_ZN5DCraw16fuji_fill_bufferEPNS_21fuji_compressed_blockE
librtengine.so:_ZN5DCraw16guess_byte_orderEi
librtengine.so:_ZN5DCraw16make_decoder_refEPPKh
librtengine.so:_ZN5DCraw16olympus_load_rawEv
librtengine.so:_ZN5DCraw16parse_thumb_noteEijj
librtengine.so:_ZN5DCraw16redcine_load_rawEv
librtengine.so:_ZN5DCraw16samsung_load_rawEv
librtengine.so:_ZN5DCraw16smal_v6_load_rawEv
librtengine.so:_ZN5DCraw16smal_v9_load_rawEv
librtengine.so:_ZN5DCraw17canon_600_auto_wbEv
librtengine.so:_ZN5DCraw17canon_600_correctEv
librtengine.so:_ZN5DCraw17canon_has_lowbitsEv
librtengine.so:_ZN5DCraw17foveon_camf_paramEPKcS1_
librtengine.so:_ZN5DCraw17foveon_make_curveEddd
librtengine.so:_ZN5DCraw17fuji_decode_stripEPKNS_22fuji_compressed_paramsEixj
librtengine.so:_ZN5DCraw17fuji_extend_greenEPPti
librtengine.so:_ZN5DCraw17leaf_hdr_load_rawEv
librtengine.so:_ZN5DCraw17phase_one_correctEv
librtengine.so:_ZN5DCraw17samsung2_load_rawEv
librtengine.so:_ZN5DCraw17samsung3_load_rawEv
librtengine.so:_ZN5DCraw17sony_arq_load_rawEv
librtengine.so:_ZN5DCraw17sony_arw_load_rawEv
librtengine.so:_ZN5DCraw17unpacked_load_rawEv
librtengine.so:_ZN5DCraw18canon_600_fixed_wbEi
librtengine.so:_ZN5DCraw18canon_600_load_rawEv
librtengine.so:_ZN5DCraw18canon_rmf_load_rawEv
librtengine.so:_ZN5DCraw18copy_line_to_bayerEPNS_21fuji_compressed_blockEiii
librtengine.so:_ZN5DCraw18crop_masked_pixelsEv
librtengine.so:_ZN5DCraw18eight_bit_load_rawEv
librtengine.so:_ZN5DCraw18foveon_apply_curveEPsi
librtengine.so:_ZN5DCraw18foveon_camf_matrixEPjPKc
librtengine.so:_ZN5DCraw18foveon_dp_load_rawEv
librtengine.so:_ZN5DCraw18foveon_interpolateEv
librtengine.so:_ZN5DCraw18foveon_make_curvesEPPsPfS2_f
librtengine.so:_ZN5DCraw18foveon_sd_load_rawEv
librtengine.so:_ZN5DCraw18hasselblad_correctEv
librtengine.so:_ZN5DCraw18kodak_262_load_rawEv
librtengine.so:_ZN5DCraw18kodak_65000_decodeEPsi
librtengine.so:_ZN5DCraw18kodak_rgb_load_rawEv
librtengine.so:_ZN5DCraw18lossy_dng_load_rawEv
librtengine.so:_ZN5DCraw18nikon_yuv_load_rawEv
librtengine.so:_ZN5DCraw18panasonic_load_rawEv
librtengine.so:_ZN5DCraw18phase_one_load_rawEv
librtengine.so:_ZN5DCraw18sony_arw2_load_rawEv
librtengine.so:_ZN5DCraw19canon_sraw_load_rawEv
librtengine.so:_ZN5DCraw19copy_line_to_xtransEPNS_21fuji_compressed_blockEiii
librtengine.so:_ZN5DCraw19fuji_14bit_load_rawEv
librtengine.so:_ZN5DCraw19fuji_extend_genericEPPtiii
librtengine.so:_ZN5DCraw19hasselblad_load_rawEv
librtengine.so:_ZN5DCraw19kodak_c330_load_rawEv
librtengine.so:_ZN5DCraw19kodak_c603_load_rawEv
librtengine.so:_ZN5DCraw19kodak_jpeg_load_rawEv
librtengine.so:_ZN5DCraw19kodak_radc_load_rawEv
librtengine.so:_ZN5DCraw19packed_dng_load_rawEv
librtengine.so:_ZN5DCraw19parse_external_jpegEv
librtengine.so:_ZN5DCraw19smal_decode_segmentEPA2_ji
librtengine.so:_ZN5DCraw19xtrans_decode_blockEPNS_21fuji_compressed_blockEPKNS_22fuji_compressed_paramsE
librtengine.so:_ZN5DCraw20deflate_dng_load_rawEv
librtengine.so:_ZN5DCraw20imacon_full_load_rawEv
librtengine.so:_ZN5DCraw20kodak_65000_load_rawEv
librtengine.so:_ZN5DCraw20kodak_dc120_load_rawEv
librtengine.so:_ZN5DCraw20kodak_thumb_load_rawEv
librtengine.so:_ZN5DCraw20kodak_ycbcr_load_rawEv
librtengine.so:_ZN5DCraw20nikon_14bit_load_rawEv
librtengine.so:_ZN5DCraw20phase_one_flat_fieldEii
librtengine.so:_ZN5DCraw20phase_one_load_raw_cEv
librtengine.so:_ZN5DCraw20sinar_4shot_load_rawEv
librtengine.so:_ZN5DCraw21dcraw_coeff_overridesEPKcS1_iPsPiS3_
librtengine.so:_ZN5DCraw21lossless_dng_load_rawEv
librtengine.so:_ZN5DCraw21parse_hasselblad_gainEv
librtengine.so:_ZN5DCraw22fuji_decode_sample_oddEPNS_21fuji_compressed_blockEPKNS_22fuji_compressed_paramsEPtiPNS_8int_pairE
librtengine.so:_ZN5DCraw22lossless_jpeg_load_rawEv
librtengine.so:_ZN5DCraw22minolta_rd175_load_rawEv
librtengine.so:_ZN5DCraw22quicktake_100_load_rawEv
librtengine.so:_ZN5DCraw23fuji_bayer_decode_blockEPNS_21fuji_compressed_blockEPKNS_22fuji_compressed_paramsE
librtengine.so:_ZN5DCraw23fuji_decode_sample_evenEPNS_21fuji_compressed_blockEPKNS_22fuji_compressed_paramsEPtiPNS_8int_pairE
librtengine.so:_ZN5DCraw24fuji_compressed_load_rawEv
librtengine.so:_ZN5DCraw25lossless_dnglj92_load_rawEv
librtengine.so:_ZN5DCraw28parse_fuji_compressed_headerEv
librtengine.so:_ZN5DCraw30fuji_decode_interpolation_evenEiPti
librtengine.so:_ZN5DCraw3rawEjj
librtengine.so:_ZN5DCraw4fcolEii
librtengine.so:_ZN5DCraw4get2Ev
librtengine.so:_ZN5DCraw4get4Ev
librtengine.so:_ZN5DCraw5sget2EPh
librtengine.so:_ZN5DCraw5sget4EPh
librtengine.so:_ZN5DCraw6derrorEv
librtengine.so:_ZN5DCraw6getintEi
librtengine.so:_ZN5DCraw6merrorEPvPKc
librtengine.so:_ZN5DCraw7getrealEi
librtengine.so:_ZN5DCraw7median4EPi
librtengine.so:_ZN5DCraw8identifyEv
librtengine.so:_ZN5DCraw8parse_qtEi
librtengine.so:_ZN5DCraw8tiff_getEjPjS0_S0_S0_
librtengine.so:_ZN5DCraw9ljpeg_endEPNS_5jheadE
librtengine.so:_ZN5DCraw9ljpeg_rowEiPNS_5jheadE
librtengine.so:_ZN5DCraw9parse_gpsEi
librtengine.so:_ZN5DCraw9parse_mosEi
librtengine.so:_ZN5DCraw9ppm_thumbEv
librtengine.so:_ZN6Slicer9get_blockEjP5Block
librtengine.so:_ZN6SlicerC1EjjP5Blockj
librtengine.so:_ZN6SlicerC2EjjP5Blockj
librtengine.so:_ZN8rtengine10DCPProfile10ApplyStateC1Ev
librtengine.so:_ZN8rtengine10DCPProfile10ApplyStateC2Ev
librtengine.so:_ZN8rtengine10DCPProfile10ApplyStateD1Ev
librtengine.so:_ZN8rtengine10DCPProfile10ApplyStateD2Ev
librtengine.so:_ZN8rtengine10DCPProfile18setStep2ApplyStateERKN4Glib7ustringEbbbRNS0_10ApplyStateE
librtengine.so:_ZN8rtengine10DCPProfile7isValidEv
librtengine.so:_ZN8rtengine10DCPProfileC1ERKN4Glib7ustringE
librtengine.so:_ZN8rtengine10DCPProfileC2ERKN4Glib7ustringE
librtengine.so:_ZN8rtengine10DCPProfileD1Ev
librtengine.so:_ZN8rtengine10DCPProfileD2Ev
librtengine.so:_ZN8rtengine10FramesData18setDCRawFrameCountEj
librtengine.so:_ZN8rtengine10FramesDataC1ERKN4Glib7ustringESt10unique_ptrINS_19RawMetaDataLocationESt14default_deleteIS6_EEb
librtengine.so:_ZN8rtengine10FramesDataC2ERKN4Glib7ustringESt10unique_ptrINS_19RawMetaDataLocationESt14default_deleteIS6_EEb
librtengine.so:_ZN8rtengine10FramesDataD0Ev
librtengine.so:_ZN8rtengine10FramesDataD1Ev
librtengine.so:_ZN8rtengine10FramesDataD2Ev
librtengine.so:_ZN8rtengine10Imagefloat11setScanlineEiPhij
librtengine.so:_ZN8rtengine10Imagefloat14normalizeFloatEff
librtengine.so:_ZN8rtengine10Imagefloat16ExecCMSTransformEPv
librtengine.so:_ZN8rtengine10Imagefloat16ExecCMSTransformEPvRKNS_8LabImageEii
librtengine.so:_ZN8rtengine10Imagefloat17normalizeFloatTo1Ev
librtengine.so:_ZN8rtengine10Imagefloat20calcCroppedHistogramERKNS_10procparams10ProcParamsEfR3LUTIjE
librtengine.so:_ZN8rtengine10Imagefloat21normalizeFloatTo65535Ev
librtengine.so:_ZN8rtengine10ImagefloatC1Eii
librtengine.so:_ZN8rtengine10ImagefloatC1Ev
librtengine.so:_ZN8rtengine10ImagefloatC2Eii
librtengine.so:_ZN8rtengine10ImagefloatC2Ev
librtengine.so:_ZN8rtengine10ImagefloatD0Ev
librtengine.so:_ZN8rtengine10ImagefloatD1Ev
librtengine.so:_ZN8rtengine10ImagefloatD2Ev
librtengine.so:_ZN8rtengine10LCPProfile11handle_textERKNSt7__cxx1112basic_stringIcSt11char_traitsIcESaIcEEE
librtengine.so:_ZN8rtengine10LCPProfile12LCPPersModelC1Ev
librtengine.so:_ZN8rtengine10LCPProfile12LCPPersModelC2Ev
librtengine.so:_ZN8rtengine10LCPProfile13XmlEndHandlerEPvPKc
librtengine.so:_ZN8rtengine10LCPProfile14XmlTextHandlerEPvPKci
librtengine.so:_ZN8rtengine10LCPProfile15XmlStartHandlerEPvPKcPS3_
librtengine.so:_ZN8rtengine10LCPProfile15filterBadFramesENS_17LCPCorrectionModeEdi
librtengine.so:_ZN8rtengine10LCPProfileC1ERKN4Glib7ustringE
librtengine.so:_ZN8rtengine10LCPProfileC2ERKN4Glib7ustringE
librtengine.so:_ZN8rtengine10LCPProfileD1Ev
librtengine.so:_ZN8rtengine10LCPProfileD2Ev
librtengine.so:_ZN8rtengine10LFDatabase11getInstanceEv
librtengine.so:_ZN8rtengine10LFDatabase12findModifierERKNS_10procparams14LensProfParamsEPKNS_14FramesMetaDataEiiRKNS1_21CoarseTransformParamsEi
librtengine.so:_ZN8rtengine10LFDatabase13LoadDirectoryEPKc
librtengine.so:_ZN8rtengine10LFDatabase4initERKN4Glib7ustringE
librtengine.so:_ZN8rtengine10LFDatabaseC1Ev
librtengine.so:_ZN8rtengine10LFDatabaseC2Ev
librtengine.so:_ZN8rtengine10LFDatabaseD1Ev
librtengine.so:_ZN8rtengine10LFDatabaseD2Ev
librtengine.so:_ZN8rtengine10LFModifierC1EP10lfModifierbi
librtengine.so:_ZN8rtengine10LFModifierC2EP10lfModifierbi
librtengine.so:_ZN8rtengine10LFModifierD0Ev
librtengine.so:_ZN8rtengine10LFModifierD1Ev
librtengine.so:_ZN8rtengine10LFModifierD2Ev
librtengine.so:_ZN8rtengine10NoiseCurve3SetERKNS_5CurveE
librtengine.so:_ZN8rtengine10NoiseCurve3SetERKSt6vectorIdSaIdEE
librtengine.so:_ZN8rtengine10NoiseCurve5ResetEv
librtengine.so:_ZN8rtengine10NoiseCurveC1Ev
librtengine.so:_ZN8rtengine10NoiseCurveC2Ev
librtengine.so:_ZN8rtengine10PolarCoordaSERKNS_5CoordE
librtengine.so:_ZN8rtengine10poke255_ucERPhhhh
librtengine.so:_ZN8rtengine10procparams10CropParamsC1Ev
librtengine.so:_ZN8rtengine10procparams10CropParamsC2Ev
librtengine.so:_ZN8rtengine10procparams10ProcParams11setDefaultsEv
librtengine.so:_ZN8rtengine10procparams10ProcParams4initEv
librtengine.so:_ZN8rtengine10procparams10ProcParams4loadERKN4Glib7ustringEP12ParamsEdited
librtengine.so:_ZN8rtengine10procparams10ProcParams4saveERKN4Glib7ustringES5_bP12ParamsEdited
librtengine.so:_ZN8rtengine10procparams10ProcParams6createEv
librtengine.so:_ZN8rtengine10procparams10ProcParams7cleanupEv
librtengine.so:_ZN8rtengine10procparams10ProcParams7destroyEPS1_
librtengine.so:_ZN8rtengine10procparams10ProcParamsC1Ev
librtengine.so:_ZN8rtengine10procparams10ProcParamsC2Ev
librtengine.so:_ZN8rtengine10procparams12CACorrParamsC1Ev
librtengine.so:_ZN8rtengine10procparams12CACorrParamsC2Ev
librtengine.so:_ZN8rtengine10procparams12DehazeParamsC1Ev
librtengine.so:_ZN8rtengine10procparams12DehazeParamsC2Ev
librtengine.so:_ZN8rtengine10procparams12LCurveParamsC1Ev
librtengine.so:_ZN8rtengine10procparams12LCurveParamsC2Ev
librtengine.so:_ZN8rtengine10procparams12ResizeParamsC1Ev
librtengine.so:_ZN8rtengine10procparams12ResizeParamsC2Ev
librtengine.so:_ZN8rtengine10procparams12RotateParamsC1Ev
librtengine.so:_ZN8rtengine10procparams12RotateParamsC2Ev
librtengine.so:_ZN8rtengine10procparams13RetinexParamsC1Ev
librtengine.so:_ZN8rtengine10procparams13RetinexParamsC2Ev
librtengine.so:_ZN8rtengine10procparams13WaveletParamsC1Ev
librtengine.so:_ZN8rtengine10procparams13WaveletParamsC2Ev
librtengine.so:_ZN8rtengine10procparams14DefringeParamsC1Ev
librtengine.so:_ZN8rtengine10procparams14DefringeParamsC2Ev
librtengine.so:_ZN8rtengine10procparams14GradientParamsC1Ev
librtengine.so:_ZN8rtengine10procparams14GradientParamsC2Ev
librtengine.so:_ZN8rtengine10procparams14LensProfParamsC1Ev
librtengine.so:_ZN8rtengine10procparams14LensProfParamsC2Ev
librtengine.so:_ZN8rtengine10procparams14MetaDataParamsC1Ev
librtengine.so:_ZN8rtengine10procparams14MetaDataParamsC2Ev
librtengine.so:_ZN8rtengine10procparams14PartialProfile12clearGeneralEv
librtengine.so:_ZN8rtengine10procparams14PartialProfile14deleteInstanceEv
librtengine.so:_ZN8rtengine10procparams14PartialProfile3setEb
librtengine.so:_ZN8rtengine10procparams14PartialProfile4loadERKN4Glib7ustringE
librtengine.so:_ZN8rtengine10procparams14PartialProfileC1EPKNS0_10ProcParamsEPK12ParamsEdited
librtengine.so:_ZN8rtengine10procparams14PartialProfileC1EPNS0_10ProcParamsEP12ParamsEditedb
librtengine.so:_ZN8rtengine10procparams14PartialProfileC1Ebb
librtengine.so:_ZN8rtengine10procparams14PartialProfileC2EPKNS0_10ProcParamsEPK12ParamsEdited
librtengine.so:_ZN8rtengine10procparams14PartialProfileC2EPNS0_10ProcParamsEP12ParamsEditedb
librtengine.so:_ZN8rtengine10procparams14PartialProfileC2Ebb
librtengine.so:_ZN8rtengine10procparams14VibranceParamsC1Ev
librtengine.so:_ZN8rtengine10procparams14VibranceParamsC2Ev
librtengine.so:_ZN8rtengine10procparams15RGBCurvesParamsC1Ev
librtengine.so:_ZN8rtengine10procparams15RGBCurvesParamsC2Ev
librtengine.so:_ZN8rtengine10procparams15SoftLightParamsC1Ev
librtengine.so:_ZN8rtengine10procparams15SoftLightParamsC2Ev
librtengine.so:_ZN8rtengine10procparams15ToneCurveParamsC1Ev
librtengine.so:_ZN8rtengine10procparams15ToneCurveParamsC2Ev
librtengine.so:_ZN8rtengine10procparams16BlackWhiteParamsC1Ev
librtengine.so:_ZN8rtengine10procparams16BlackWhiteParamsC2Ev
librtengine.so:_ZN8rtengine10procparams16DistortionParamsC1Ev
librtengine.so:_ZN8rtengine10procparams16DistortionParamsC2Ev
librtengine.so:_ZN8rtengine10procparams16PCVignetteParamsC1Ev
librtengine.so:_ZN8rtengine10procparams16PCVignetteParamsC2Ev
librtengine.so:_ZN8rtengine10procparams16SharpeningParamsC1Ev
librtengine.so:_ZN8rtengine10procparams16SharpeningParamsC2Ev
librtengine.so:_ZN8rtengine10procparams16VignettingParamsC1Ev
librtengine.so:_ZN8rtengine10procparams16VignettingParamsC2Ev
librtengine.so:_ZN8rtengine10procparams17ColorToningParams19LabCorrectionRegionC1Ev
librtengine.so:_ZN8rtengine10procparams17ColorToningParams19LabCorrectionRegionC2Ev
librtengine.so:_ZN8rtengine10procparams17ColorToningParamsC1Ev
librtengine.so:_ZN8rtengine10procparams17ColorToningParamsC2Ev
librtengine.so:_ZN8rtengine10procparams17PerspectiveParamsC1Ev
librtengine.so:_ZN8rtengine10procparams17PerspectiveParamsC2Ev
librtengine.so:_ZN8rtengine10procparams17SharpenEdgeParamsC1Ev
librtengine.so:_ZN8rtengine10procparams17SharpenEdgeParamsC2Ev
librtengine.so:_ZN8rtengine10procparams18AutoPartialProfileC1Ev
librtengine.so:_ZN8rtengine10procparams18AutoPartialProfileC2Ev
librtengine.so:_ZN8rtengine10procparams18AutoPartialProfileD1Ev
librtengine.so:_ZN8rtengine10procparams18AutoPartialProfileD2Ev
librtengine.so:_ZN8rtengine10procparams18ChannelMixerParamsC1Ev
librtengine.so:_ZN8rtengine10procparams18ChannelMixerParamsC2Ev
librtengine.so:_ZN8rtengine10procparams18HSVEqualizerParamsC1Ev
librtengine.so:_ZN8rtengine10procparams18HSVEqualizerParamsC2Ev
librtengine.so:_ZN8rtengine10procparams18SharpenMicroParamsC1Ev
librtengine.so:_ZN8rtengine10procparams18SharpenMicroParamsC2Ev
librtengine.so:_ZN8rtengine10procparams19DirPyrDenoiseParamsC1Ev
librtengine.so:_ZN8rtengine10procparams19DirPyrDenoiseParamsC2Ev
librtengine.so:_ZN8rtengine10procparams19LocalContrastParamsC1Ev
librtengine.so:_ZN8rtengine10procparams19LocalContrastParamsC2Ev
librtengine.so:_ZN8rtengine10procparams20FilmSimulationParamsC1Ev
librtengine.so:_ZN8rtengine10procparams20FilmSimulationParamsC2Ev
librtengine.so:_ZN8rtengine10procparams20ImpulseDenoiseParamsC1Ev
librtengine.so:_ZN8rtengine10procparams20ImpulseDenoiseParamsC2Ev
librtengine.so:_ZN8rtengine10procparams21CoarseTransformParamsC1Ev
librtengine.so:_ZN8rtengine10procparams21CoarseTransformParamsC2Ev
librtengine.so:_ZN8rtengine10procparams21ColorAppearanceParamsC1Ev
librtengine.so:_ZN8rtengine10procparams21ColorAppearanceParamsC2Ev
librtengine.so:_ZN8rtengine10procparams21ColorManagementParamsC1Ev
librtengine.so:_ZN8rtengine10procparams21ColorManagementParamsC2Ev
librtengine.so:_ZN8rtengine10procparams21CommonTransformParamsC1Ev
librtengine.so:_ZN8rtengine10procparams21CommonTransformParamsC2Ev
librtengine.so:_ZN8rtengine10procparams21DirPyrEqualizerParamsC1Ev
librtengine.so:_ZN8rtengine10procparams21DirPyrEqualizerParamsC2Ev
librtengine.so:_ZN8rtengine10procparams23FattalToneMappingParamsC1Ev
librtengine.so:_ZN8rtengine10procparams23FattalToneMappingParamsC2Ev
librtengine.so:_ZN8rtengine10procparams8SHParamsC1Ev
librtengine.so:_ZN8rtengine10procparams8SHParamsC2Ev
librtengine.so:_ZN8rtengine10procparams8WBParams12getWbEntriesEv
librtengine.so:_ZN8rtengine10procparams8WBParamsC1Ev
librtengine.so:_ZN8rtengine10procparams8WBParamsC2Ev
librtengine.so:_ZN8rtengine10procparams9EPDParamsC1Ev
librtengine.so:_ZN8rtengine10procparams9EPDParamsC2Ev
librtengine.so:_ZN8rtengine10procparams9RAWParams11BayerSensor15getMethodStringENS2_6MethodE
librtengine.so:_ZN8rtengine10procparams9RAWParams11BayerSensor16getMethodStringsEv
librtengine.so:_ZN8rtengine10procparams9RAWParams11BayerSensor21setPixelShiftDefaultsEv
librtengine.so:_ZN8rtengine10procparams9RAWParams11BayerSensor25getPSDemosaicMethodStringENS2_16PSDemosaicMethodE
librtengine.so:_ZN8rtengine10procparams9RAWParams11BayerSensor26getPSDemosaicMethodStringsEv
librtengine.so:_ZN8rtengine10procparams9RAWParams11BayerSensorC1Ev
librtengine.so:_ZN8rtengine10procparams9RAWParams11BayerSensorC2Ev
librtengine.so:_ZN8rtengine10procparams9RAWParams12XTransSensor15getMethodStringENS2_6MethodE
librtengine.so:_ZN8rtengine10procparams9RAWParams12XTransSensor16getMethodStringsEv
librtengine.so:_ZN8rtengine10procparams9RAWParams12XTransSensorC1Ev
librtengine.so:_ZN8rtengine10procparams9RAWParams12XTransSensorC2Ev
librtengine.so:_ZN8rtengine10procparams9RAWParams26getFlatFieldBlurTypeStringENS1_17FlatFieldBlurTypeE
librtengine.so:_ZN8rtengine10procparams9RAWParams27getFlatFieldBlurTypeStringsEv
librtengine.so:_ZN8rtengine10procparams9RAWParamsC1Ev
librtengine.so:_ZN8rtengine10procparams9RAWParamsC2Ev
librtengine.so:_ZN8rtengine11CameraConst10get_LevelsERNS_19camera_const_levelsEiif
librtengine.so:_ZN8rtengine11CameraConst10parseEntryEPvPKc
librtengine.so:_ZN8rtengine11CameraConst11get_rawCropERiS1_S1_S1_
librtengine.so:_ZN8rtengine11CameraConst11get_rawMaskEiRiS1_S1_S1_
librtengine.so:_ZN8rtengine11CameraConst11has_rawCropEv
librtengine.so:_ZN8rtengine11CameraConst11has_rawMaskEi
librtengine.so:_ZN8rtengine11CameraConst11parseLevelsEPS0_iPv
librtengine.so:_ZN8rtengine11CameraConst11update_CropEPS0_
librtengine.so:_ZN8rtengine11CameraConst13update_LevelsEPKS0_
librtengine.so:_ZN8rtengine11CameraConst14get_BlackLevelEii
librtengine.so:_ZN8rtengine11CameraConst14get_WhiteLevelEiif
librtengine.so:_ZN8rtengine11CameraConst15get_dcrawMatrixEv
librtengine.so:_ZN8rtengine11CameraConst15get_pdafPatternEv
librtengine.so:_ZN8rtengine11CameraConst15has_dcrawMatrixEv
librtengine.so:_ZN8rtengine11CameraConst15has_pdafPatternEv
librtengine.so:_ZN8rtengine11CameraConst17update_pdafOffsetEi
librtengine.so:_ZN8rtengine11CameraConst18update_dcrawMatrixEPKs
librtengine.so:_ZN8rtengine11CameraConst18update_pdafPatternERKSt6vectorIiSaIiEE
librtengine.so:_ZN8rtengine11CameraConst20parseApertureScalingEPS0_Pv
librtengine.so:_ZN8rtengine11CameraConst28get_globalGreenEquilibrationEv
librtengine.so:_ZN8rtengine11CameraConst28has_globalGreenEquilibrationEv
librtengine.so:_ZN8rtengine11CameraConst31update_globalGreenEquilibrationEb
librtengine.so:_ZN8rtengine11CameraConstC1Ev
librtengine.so:_ZN8rtengine11CameraConstC2Ev
librtengine.so:_ZN8rtengine12CurveFactory11curveToningERKSt6vectorIdSaIdEER3LUTIfEi
librtengine.so:_ZN8rtengine12CurveFactory12complexCurveEdddddddRKSt6vectorIdSaIdEES5_R3LUTIjERS6_IfESA_SA_S8_RNS_9ToneCurveESC_i
librtengine.so:_ZN8rtengine12CurveFactory13complexLCurveEddRKSt6vectorIdSaIdEERK3LUTIjERS6_IfERS7_iRb
librtengine.so:_ZN8rtengine12CurveFactory13curveWavContLERbRKSt6vectorIdSaIdEER3LUTIfEi
librtengine.so:_ZN8rtengine12CurveFactory14curveDehaContLERbRKSt6vectorIdSaIdEER3LUTIfEiRKS7_IjERSA_
librtengine.so:_ZN8rtengine12CurveFactory15complexsgnCurveERbS1_S1_S1_RKSt6vectorIdSaIdEES6_S6_S6_R3LUTIfES9_S9_S9_i
librtengine.so:_ZN8rtengine12CurveFactory21curveLightBrightColorERKSt6vectorIdSaIdEES5_S5_RK3LUTIjERS7_S9_SA_RNS_15ColorAppearanceESC_SC_i
librtengine.so:_ZN8rtengine12CurveFactory7curveBWERKSt6vectorIdSaIdEES5_RK3LUTIjERS7_RNS_9ToneCurveESC_i
librtengine.so:_ZN8rtengine12CurveFactory7curveCLERbRKSt6vectorIdSaIdEER3LUTIfEi
librtengine.so:_ZN8rtengine12CurveFactory8RGBCurveERKSt6vectorIdSaIdEER3LUTIfEi
librtengine.so:_ZN8rtengine12CurveFactory8mapcurveERbRKSt6vectorIdSaIdEER3LUTIfEiRKS7_IjERSA_
librtengine.so:_ZN8rtengine12GamutWarning8markLineEPNS_6Image8EiPfS3_S3_
librtengine.so:_ZN8rtengine12GamutWarningC1EPvS1_NS_15RenderingIntentEb
librtengine.so:_ZN8rtengine12GamutWarningC2EPvS1_NS_15RenderingIntentEb
librtengine.so:_ZN8rtengine12GamutWarningD1Ev
librtengine.so:_ZN8rtengine12GamutWarningD2Ev
librtengine.so:_ZN8rtengine12InitialImage4loadERKN4Glib7ustringEbPiPNS_16ProgressListenerE
librtengine.so:_ZN8rtengine12OpacityCurve3SetEPKNS_5CurveE
librtengine.so:_ZN8rtengine12OpacityCurve3SetERKSt6vectorIdSaIdEERb
librtengine.so:_ZN8rtengine12OpacityCurve5ResetEv
librtengine.so:_ZN8rtengine12PreviewImage8getImageEv
librtengine.so:_ZN8rtengine12PreviewImageC1ERKN4Glib7ustringES4_NS0_4modeE
librtengine.so:_ZN8rtengine12PreviewImageC2ERKN4Glib7ustringES4_NS0_4modeE
librtengine.so:_ZN8rtengine12guidedFilterERK7array2DIfES3_RS1_ifbi
librtengine.so:_ZN8rtengine12processImageEPNS_13ProcessingJobERiPNS_16ProgressListenerEb
librtengine.so:_ZN8rtengine13DiagonalCurve15catmull_rom_setEv
librtengine.so:_ZN8rtengine13DiagonalCurve16spline_cubic_setEv
librtengine.so:_ZN8rtengine13DiagonalCurve9NURBS_setEv
librtengine.so:_ZN8rtengine13DiagonalCurveC1ERKSt6vectorIdSaIdEEi
librtengine.so:_ZN8rtengine13DiagonalCurveC2ERKSt6vectorIdSaIdEEi
librtengine.so:_ZN8rtengine13DiagonalCurveD0Ev
librtengine.so:_ZN8rtengine13DiagonalCurveD1Ev
librtengine.so:_ZN8rtengine13DiagonalCurveD2Ev
librtengine.so:_ZN8rtengine13PipetteBuffer12createBufferEii
librtengine.so:_ZN8rtengine13PipetteBuffer13bufferCreatedEv
librtengine.so:_ZN8rtengine13PipetteBuffer14getPipetteDataEiii
librtengine.so:_ZN8rtengine13PipetteBuffer5flushEv
librtengine.so:_ZN8rtengine13PipetteBuffer6resizeEii
librtengine.so:_ZN8rtengine13PipetteBuffer6resizeEiiP14EditSubscriber
librtengine.so:_ZN8rtengine13PipetteBuffer9getEditIDEv
librtengine.so:_ZN8rtengine13PipetteBufferC1EP16EditDataProvider
librtengine.so:_ZN8rtengine13PipetteBufferC2EP16EditDataProvider
librtengine.so:_ZN8rtengine13PipetteBufferD1Ev
librtengine.so:_ZN8rtengine13PipetteBufferD2Ev
librtengine.so:_ZN8rtengine13ProcessingJob6createEPNS_12InitialImageERKNS_10procparams10ProcParamsEb
librtengine.so:_ZN8rtengine13ProcessingJob6createERKN4Glib7ustringEbRKNS_10procparams10ProcParamsEb
librtengine.so:_ZN8rtengine13ProcessingJob7destroyEPS0_
librtengine.so:_ZN8rtengine13RefreshMapper11getInstanceEv
librtengine.so:_ZN8rtengine13RefreshMapper8mapEventENS_9ProcEventEi
librtengine.so:_ZN8rtengine13RefreshMapper8newEventEv
librtengine.so:_ZN8rtengine13RefreshMapperC1Ev
librtengine.so:_ZN8rtengine13RefreshMapperC2Ev
librtengine.so:_ZN8rtengine13filmlike_clipEPfS0_S0_
librtengine.so:_ZN8rtengine13nearestInterpEPKhiiPhii
librtengine.so:_ZN8rtengine13sanitizeCurveERSt6vectorIdSaIdEE
librtengine.so:_ZN8rtengine14FramesMetaData15expcompToStringB5cxx11Edb
librtengine.so:_ZN8rtengine14FramesMetaData15shutterToStringB5cxx11Ed
librtengine.so:_ZN8rtengine14FramesMetaData16apertureToStringB5cxx11Ed
librtengine.so:_ZN8rtengine14FramesMetaData17shutterFromStringENSt7__cxx1112basic_stringIcSt11char_traitsIcESaIcEEE
librtengine.so:_ZN8rtengine14FramesMetaData18apertureFromStringENSt7__cxx1112basic_stringIcSt11char_traitsIcESaIcEEE
librtengine.so:_ZN8rtengine14FramesMetaData8fromFileERKN4Glib7ustringESt10unique_ptrINS_19RawMetaDataLocationESt14default_deleteIS6_EEb
librtengine.so:_ZN8rtengine14LCPModelCommon13prepareParamsEiifffbbb
librtengine.so:_ZN8rtengine14LCPModelCommon5mergeERKS0_S2_f
librtengine.so:_ZN8rtengine14LCPModelCommonC1Ev
librtengine.so:_ZN8rtengine14LCPModelCommonC2Ev
librtengine.so:_ZN8rtengine14ProfileContentC1EPv
librtengine.so:_ZN8rtengine14ProfileContentC1ERKN4Glib7ustringE
librtengine.so:_ZN8rtengine14ProfileContentC1Ev
librtengine.so:_ZN8rtengine14ProfileContentC2EPv
librtengine.so:_ZN8rtengine14ProfileContentC2ERKN4Glib7ustringE
librtengine.so:_ZN8rtengine14ProfileContentC2Ev
librtengine.so:_ZN8rtengine14RawImageSource10cfa_linednEfbbRKNS0_24CFALineDenoiseRowBlenderE
librtengine.so:_ZN8rtengine14RawImageSource10cfaboxblurEPNS_8RawImageEPfii
librtengine.so:_ZN8rtengine14RawImageSource10hlRecoveryERKNSt7__cxx1112basic_stringIcSt11char_traitsIcESaIcEEEPfS9_S9_iS9_
librtengine.so:_ZN8rtengine14RawImageSource10nodemosaicEb
librtengine.so:_ZN8rtengine14RawImageSource10pixelshiftEiiiiRKNS_10procparams9RAWParamsEjRKNSt7__cxx1112basic_stringIcSt11char_traitsIcESaIcEEESC_f
librtengine.so:_ZN8rtengine14RawImageSource10preprocessERKNS_10procparams9RAWParamsERKNS1_14LensProfParamsERKNS1_21CoarseTransformParamsEb
librtengine.so:_ZN8rtengine14RawImageSource10refinementEi
librtengine.so:_ZN8rtengine14RawImageSource11fill_borderEPA3_fiii
librtengine.so:_ZN8rtengine14RawImageSource11getFullSizeERiS1_i
librtengine.so:_ZN8rtengine14RawImageSource11scaleColorsEiiiiRKNS_10procparams9RAWParamsER7array2DIfE
librtengine.so:_ZN8rtengine14RawImageSource12ahd_demosaicEv
librtengine.so:_ZN8rtengine14RawImageSource12dcb_demosaicEib
librtengine.so:_ZN8rtengine14RawImageSource12defTransformEi
librtengine.so:_ZN8rtengine14RawImageSource12flushRawDataEv
librtengine.so:_ZN8rtengine14RawImageSource12getRawValuesEiiiRiS1_S1_
librtengine.so:_ZN8rtengine14RawImageSource12ppg_demosaicEv
librtengine.so:_ZN8rtengine14RawImageSource12rcd_demosaicEmb
librtengine.so:_ZN8rtengine14RawImageSource13CA_correct_RTEbmddbRK7array2DIfEPdbbPfbmb
librtengine.so:_ZN8rtengine14RawImageSource13eahd_demosaicEv
librtengine.so:_ZN8rtengine14RawImageSource13fast_demosaicEv
librtengine.so:_ZN8rtengine14RawImageSource13hphd_demosaicEv
librtengine.so:_ZN8rtengine14RawImageSource13transformRectERK12PreviewPropsiRiS4_S4_S4_S4_
librtengine.so:_ZN8rtengine14RawImageSource13vng4_demosaicERK7array2DIfERS2_S5_S5_
librtengine.so:_ZN8rtengine14RawImageSource14boxblur_resampEPPfS2_S2_iiii
librtengine.so:_ZN8rtengine14RawImageSource14copy_to_bufferEPA2_fPA3_f
librtengine.so:_ZN8rtengine14RawImageSource14dcb_color_fullEPA3_fiiPA2_f
librtengine.so:_ZN8rtengine14RawImageSource14dcb_correctionEPA3_fPhii
librtengine.so:_ZN8rtengine14RawImageSource14dcb_refinementEPA3_fPhii
librtengine.so:_ZN8rtengine14RawImageSource15dcb_correction2EPA3_fPhii
librtengine.so:_ZN8rtengine14RawImageSource15getRAWHistogramER3LUTIjES3_S3_
librtengine.so:_ZN8rtengine14RawImageSource15igv_interpolateEii
librtengine.so:_ZN8rtengine14RawImageSource16HLRecovery_blendEPfS1_S1_ifS1_
librtengine.so:_ZN8rtengine14RawImageSource16dual_demosaic_RTEbRKNS_10procparams9RAWParamsEiiRK7array2DIfERS6_S9_S9_Rdb
librtengine.so:_ZN8rtengine14RawImageSource16findInputProfileEN4Glib7ustringEPvNSt7__cxx1112basic_stringIcSt11char_traitsIcESaIcEEEPPNS_10DCPProfileERS3_
librtengine.so:_ZN8rtengine14RawImageSource16processFlatFieldERKNS_10procparams9RAWParamsEPNS_8RawImageEPt
librtengine.so:_ZN8rtengine14RawImageSource17HLRecovery_CIELabEPfS1_S1_S1_S1_S1_ifPA3_dS3_
librtengine.so:_ZN8rtengine14RawImageSource17HLRecovery_GlobalERKNS_10procparams15ToneCurveParamsE
librtengine.so:_ZN8rtengine14RawImageSource17amaze_demosaic_RTEiiiiRK7array2DIfERS2_S5_S5_mb
librtengine.so:_ZN8rtengine14RawImageSource17convertColorSpaceEPNS_10ImagefloatERKNS_10procparams21ColorManagementParamsERKNS_9ColorTempE
librtengine.so:_ZN8rtengine14RawImageSource17findHotDeadPixelsERNS_9PixelsMapEfbb
librtengine.so:_ZN8rtengine14RawImageSource17green_equilibrateERKNS0_24GreenEqulibrateThresholdER7array2DIfE
librtengine.so:_ZN8rtengine14RawImageSource17refinement_lassusEi
librtengine.so:_ZN8rtengine14RawImageSource17transformPositionEiiiRiS1_
librtengine.so:_ZN8rtengine14RawImageSource18HLRecovery_inpaintEPPfS2_S2_
librtengine.so:_ZN8rtengine14RawImageSource18border_interpolateEjPA4_fjj
librtengine.so:_ZN8rtengine14RawImageSource18copyOriginalPixelsERKNS_10procparams9RAWParamsEPNS_8RawImageES6_S6_R7array2DIfE
librtengine.so:_ZN8rtengine14RawImageSource18xtrans_interpolateEibmb
librtengine.so:_ZN8rtengine14RawImageSource19border_interpolate2EiiiRK7array2DIfERS2_S5_S5_
librtengine.so:_ZN8rtengine14RawImageSource19getAutoExpHistogramER3LUTIjERi
librtengine.so:_ZN8rtengine14RawImageSource19jdl_interpolate_ompEv
librtengine.so:_ZN8rtengine14RawImageSource19restore_from_bufferEPA3_fPA2_f
librtengine.so:_ZN8rtengine14RawImageSource20HLRecovery_LuminanceEPfS1_S1_S1_S1_S1_if
librtengine.so:_ZN8rtengine14RawImageSource20getAutoWBMultipliersERdS1_S1_
librtengine.so:_ZN8rtengine14RawImageSource20retinexPrepareCurvesERKNS_10procparams13RetinexParamsER3LUTIfES7_RNS_24RetinextransmissionCurveERNS_28RetinexgaintransmissionCurveERbSC_SC_RS5_IjESE_
librtengine.so:_ZN8rtengine14RawImageSource21colorSpaceConversion_EPNS_10ImagefloatERKNS_10procparams21ColorManagementParamsERKNS_9ColorTempEPdPvSB_PA3_dRKNSt7__cxx1112basic_stringIcSt11char_traitsIcESaIcEEE
librtengine.so:_ZN8rtengine14RawImageSource21lmmse_interpolate_ompEiiR7array2DIfES3_S3_S3_i
librtengine.so:_ZN8rtengine14RawImageSource21retinexPrepareBuffersERKNS_10procparams21ColorManagementParamsERKNS1_13RetinexParamsER13multi_array2DIfLm4EER3LUTIjE
librtengine.so:_ZN8rtengine14RawImageSource23fast_xtrans_interpolateERK7array2DIfERS2_S5_S5_
librtengine.so:_ZN8rtengine14RawImageSource23getAutoMatchedToneCurveERKNS_10procparams21ColorManagementParamsERSt6vectorIdSaIdEE
librtengine.so:_ZN8rtengine14RawImageSource23getProfilePreprocParamsEPvRfS2_S2_
librtengine.so:_ZN8rtengine14RawImageSource24green_equilibrate_globalER7array2DIfE
librtengine.so:_ZN8rtengine14RawImageSource24xtransborder_interpolateEiR7array2DIfES3_S3_
librtengine.so:_ZN8rtengine14RawImageSource25interpolateBadPixelsBayerERNS_9PixelsMapER7array2DIfE
librtengine.so:_ZN8rtengine14RawImageSource26interpolateBadPixelsXtransERNS_9PixelsMapE
librtengine.so:_ZN8rtengine14RawImageSource27processFalseColorCorrectionEPNS_10ImagefloatEi
librtengine.so:_ZN8rtengine14RawImageSource28interpolateBadPixelsNColoursERNS_9PixelsMapEi
librtengine.so:_ZN8rtengine14RawImageSource33processFalseColorCorrectionThreadEPNS_10ImagefloatER7array2DIfES5_S5_S5_S5_ii
librtengine.so:_ZN8rtengine14RawImageSource3MSREPPfS2_S2_R3LUTIfERbiiRKNS_10procparams13RetinexParamsERKNS_24RetinextransmissionCurveERKNS_28RetinexgaintransmissionCurveERfSH_SH_SH_SH_SH_SH_SH_
librtengine.so:_ZN8rtengine14RawImageSource4initEv
librtengine.so:_ZN8rtengine14RawImageSource4loadERKN4Glib7ustringEb
librtengine.so:_ZN8rtengine14RawImageSource5hflipEPNS_10ImagefloatE
librtengine.so:_ZN8rtengine14RawImageSource5vflipEPNS_10ImagefloatE
librtengine.so:_ZN8rtengine14RawImageSource6cielabEPA3_KfPfS4_S4_iiiS3_
librtengine.so:_ZN8rtengine14RawImageSource6dcb_ppEPA3_fii
librtengine.so:_ZN8rtengine14RawImageSource6getDCPERKNS_10procparams21ColorManagementParamsERNS_10DCPProfile10ApplyStateE
librtengine.so:_ZN8rtengine14RawImageSource7cleanupEv
librtengine.so:_ZN8rtengine14RawImageSource7dcb_hidEPA3_fii
librtengine.so:_ZN8rtengine14RawImageSource7dcb_mapEPA3_fPhii
librtengine.so:_ZN8rtengine14RawImageSource7getSizeERK12PreviewPropsRiS4_
librtengine.so:_ZN8rtengine14RawImageSource7retinexERKNS_10procparams21ColorManagementParamsERKNS1_13RetinexParamsERKNS1_15ToneCurveParamsER3LUTIfESD_RKNS_24RetinextransmissionCurveERKNS_28RetinexgaintransmissionCurveER13multi_array2DIfLm4EEbbbRfSN_SN_SN_SN_SN_SN_SN_RSB_IjE
librtengine.so:_ZN8rtengine14RawImageSource8boxblur2EPPfS2_S2_iii
librtengine.so:_ZN8rtengine14RawImageSource8dcb_hid2EPA3_fii
librtengine.so:_ZN8rtengine14RawImageSource8ddct8x8sEiPA8_f
librtengine.so:_ZN8rtengine14RawImageSource8demosaicERKNS_10procparams9RAWParamsEbRd
librtengine.so:_ZN8rtengine14RawImageSource8fill_rawEPA3_fiiPPf
librtengine.so:_ZN8rtengine14RawImageSource8flushRGBEv
librtengine.so:_ZN8rtengine14RawImageSource8getImageERKNS_9ColorTempEiPNS_10ImagefloatERK12PreviewPropsRKNS_10procparams15ToneCurveParamsERKNS9_9RAWParamsE
librtengine.so:_ZN8rtengine14RawImageSource9dcb_colorEPA3_fii
librtengine.so:_ZN8rtengine14RawImageSource9getSpotWBERSt6vectorINS_7Coord2DESaIS2_EES5_S5_id
librtengine.so:_ZN8rtengine14RawImageSource9inverse33EPA3_KdPA3_d
librtengine.so:_ZN8rtengine14RawImageSourceC1Ev
librtengine.so:_ZN8rtengine14RawImageSourceC2Ev
librtengine.so:_ZN8rtengine14RawImageSourceD0Ev
librtengine.so:_ZN8rtengine14RawImageSourceD1Ev
librtengine.so:_ZN8rtengine14RawImageSourceD2Ev
librtengine.so:_ZN8rtengine14StdImageSource11getFullSizeERiS1_i
librtengine.so:_ZN8rtengine14StdImageSource15getSampleFormatERKN4Glib7ustringERNS_17IIO_Sample_FormatERNS_22IIO_Sample_ArrangementE
librtengine.so:_ZN8rtengine14StdImageSource17convertColorSpaceEPNS_10ImagefloatERKNS_10procparams21ColorManagementParamsERKNS_9ColorTempE
librtengine.so:_ZN8rtengine14StdImageSource19getAutoExpHistogramER3LUTIjERi
librtengine.so:_ZN8rtengine14StdImageSource20colorSpaceConversionEPNS_10ImagefloatERKNS_10procparams21ColorManagementParamsEPvNS_17IIO_Sample_FormatE
librtengine.so:_ZN8rtengine14StdImageSource20getAutoWBMultipliersERdS1_S1_
librtengine.so:_ZN8rtengine14StdImageSource4loadERKN4Glib7ustringE
librtengine.so:_ZN8rtengine14StdImageSource7getSizeERK12PreviewPropsRiS4_
librtengine.so:_ZN8rtengine14StdImageSource8flushRGBEv
librtengine.so:_ZN8rtengine14StdImageSource8getImageERKNS_9ColorTempEiPNS_10ImagefloatERK12PreviewPropsRKNS_10procparams15ToneCurveParamsERKNS9_9RAWParamsE
librtengine.so:_ZN8rtengine14StdImageSource9getSpotWBERSt6vectorINS_7Coord2DESaIS2_EES5_S5_id
librtengine.so:_ZN8rtengine14StdImageSourceC1Ev
librtengine.so:_ZN8rtengine14StdImageSourceC2Ev
librtengine.so:_ZN8rtengine14StdImageSourceD0Ev
librtengine.so:_ZN8rtengine14StdImageSourceD1Ev
librtengine.so:_ZN8rtengine14StdImageSourceD2Ev
librtengine.so:_ZN8rtengine14bilinearInterpEPKhiiPhii
librtengine.so:_ZN8rtengine14buildBlendMaskEPPfS1_iiRffb
librtengine.so:_ZN8rtengine14fillCurveArrayEPNS_13DiagonalCurveER3LUTIfEib
librtengine.so:_ZN8rtengine15ColorAppearance3SetERKNS_5CurveE
librtengine.so:_ZN8rtengine15ColorAppearance5ResetEv
librtengine.so:_ZN8rtengine15ImProcFunctions10CompressDREPfiiff
librtengine.so:_ZN8rtengine15ImProcFunctions10EPDToneMapEPNS_8LabImageEji
librtengine.so:_ZN8rtengine15ImProcFunctions10ShrinkAllLERNS_21wavelet_decompositionEPPfiiS3_S3_S3_i
librtengine.so:_ZN8rtengine15ImProcFunctions10getAutoExpERK3LUTIjEidRdRiS6_S6_S6_S6_
librtengine.so:_ZN8rtengine15ImProcFunctions10impulse_nrEPNS_8LabImageEd
librtengine.so:_ZN8rtengine15ImProcFunctions10ip_waveletEPNS_8LabImageES2_iRKNS_10procparams13WaveletParamsERKNS_8WavCurveERKNS_17WavOpacityCurveRGERKNS_17WavOpacityCurveBYERKNS_16WavOpacityCurveWERKNS_17WavOpacityCurveWLER3LUTIfEi
librtengine.so:_ZN8rtengine15ImProcFunctions10lab2rgbOutEPNS_8LabImageEiiiiRKNS_10procparams21ColorManagementParamsE
librtengine.so:_ZN8rtengine15ImProcFunctions10sharpeningEPNS_8LabImageERKNS_10procparams16SharpeningParamsEb
librtengine.so:_ZN8rtengine15ImProcFunctions10toning2colEfffRfS1_S1_fffffffffffffiif
librtengine.so:_ZN8rtengine15ImProcFunctions10transCoordEiiRKSt6vectorINS_7Coord2DESaIS2_EERS4_S7_S7_dPKNS_14LensCorrectionE
librtengine.so:_ZN8rtengine15ImProcFunctions10transCoordEiiiiiiRiS1_S1_S1_dPKNS_14LensCorrectionE
librtengine.so:_ZN8rtengine15ImProcFunctions11RGB_denoiseEiPNS_10ImagefloatES2_S2_PfS3_S3_bRKNS_10procparams19DirPyrDenoiseParamsEdRKNS_10NoiseCurveESA_RfSB_
librtengine.so:_ZN8rtengine15ImProcFunctions11ShrinkAllABERNS_21wavelet_decompositionES2_PPfiiS3_fbbbS3_S3_b
librtengine.so:_ZN8rtengine15ImProcFunctions11defringecamEPNS_8CieImageE
librtengine.so:_ZN8rtengine15ImProcFunctions11resizeScaleEPKNS_10procparams10ProcParamsEiiRiS5_
librtengine.so:_ZN8rtengine15ImProcFunctions11retreavergbERfS1_S1_
librtengine.so:_ZN8rtengine15ImProcFunctions12BadpixelsLabEPNS_8LabImageEdif
librtengine.so:_ZN8rtengine15ImProcFunctions12BadpixelscamEPNS_8CieImageEdiifb
librtengine.so:_ZN8rtengine15ImProcFunctions12needsLensfunEv
librtengine.so:_ZN8rtengine15ImProcFunctions12secondeg_endEffRfS1_S1_
librtengine.so:_ZN8rtengine15ImProcFunctions13ContrastResidEPfRNS_11cont_paramsEiiff
librtengine.so:_ZN8rtengine15ImProcFunctions13EPDToneMapCIEEPNS_8CieImageEffiiffji
librtengine.so:_ZN8rtengine15ImProcFunctions13PF_correct_RTEPNS_8LabImageEdi
librtengine.so:_ZN8rtengine15ImProcFunctions13finalContAllLEPPfS1_iiRNS_11cont_paramsEiiS1_S1_S1_RKNS_17WavOpacityCurveWLE
librtengine.so:_ZN8rtengine15ImProcFunctions13firstAnalysisEPKNS_10ImagefloatERKNS_10procparams10ProcParamsER3LUTIjE
librtengine.so:_ZN8rtengine15ImProcFunctions13getAutoDistorERKN4Glib7ustringEi
librtengine.so:_ZN8rtengine15ImProcFunctions13impulse_nrcamEPNS_8CieImageEdPPPf
librtengine.so:_ZN8rtengine15ImProcFunctions13localContrastEPNS_8LabImageE
librtengine.so:_ZN8rtengine15ImProcFunctions13needsGradientEv
librtengine.so:_ZN8rtengine15ImProcFunctions13needsRotationEv
librtengine.so:_ZN8rtengine15ImProcFunctions13sharpeningcamEPNS_8CieImageEPPfb
librtengine.so:_ZN8rtengine15ImProcFunctions14Median_DenoiseEPPfS2_fiiNS0_6MedianEiiS2_
librtengine.so:_ZN8rtengine15ImProcFunctions14Median_DenoiseEPPfS2_iiNS0_6MedianEiiS2_
librtengine.so:_ZN8rtengine15ImProcFunctions14ShrinkAll_infoEPPfS2_iiS2_S2_S2_RfRiS3_S3_S3_S3_S3_S3_iiS3_S3_S3_S3_S3_S3_S3_S3_S3_S3_S3_S4_S3_S3_S3_b
librtengine.so:_ZN8rtengine15ImProcFunctions14ciecam_02floatEPNS_8CieImageEfiiPNS_8LabImageEPKNS_10procparams10ProcParamsERKNS_15ColorAppearanceESB_SB_R3LUTIjESE_RSC_IfESG_RfiibSH_SH_SH_ib
librtengine.so:_ZN8rtengine15ImProcFunctions14dirpyr_channelEPPfS2_iiii
librtengine.so:_ZN8rtengine15ImProcFunctions14impulsedenoiseEPNS_8LabImageE
librtengine.so:_ZN8rtengine15ImProcFunctions14lab2monitorRgbEPNS_8LabImageEPNS_6Image8E
librtengine.so:_ZN8rtengine15ImProcFunctions14luminanceCurveEPNS_8LabImageES2_R3LUTIfE
librtengine.so:_ZN8rtengine15ImProcFunctions14needsTransformEv
librtengine.so:_ZN8rtengine15ImProcFunctions14secondeg_beginEffRfS1_
librtengine.so:_ZN8rtengine15ImProcFunctions15EPDToneMapResidEPfjiRNS_11cont_paramsEiiff
librtengine.so:_ZN8rtengine15ImProcFunctions15MLmicrocontrastEPNS_8LabImageE
librtengine.so:_ZN8rtengine15ImProcFunctions15MLmicrocontrastEPPfii
librtengine.so:_ZN8rtengine15ImProcFunctions15RGBtile_denoiseEPfifS1_S1_
librtengine.so:_ZN8rtengine15ImProcFunctions15ToneMapFattal02EPNS_10ImagefloatE
librtengine.so:_ZN8rtengine15ImProcFunctions15WaveletcontAllLEPNS_8LabImageEPPfS4_RNS_21wavelet_decompositionERNS_11cont_paramsEiS3_S3_S3_S3_RKNS_8WavCurveERKNS_16WavOpacityCurveWEPNS_9FlatCurveEb
librtengine.so:_ZN8rtengine15ImProcFunctions15calcautodn_infoERfS1_iifffiifff
librtengine.so:_ZN8rtengine15ImProcFunctions15dirpyrequalizerEPNS_8LabImageEi
librtengine.so:_ZN8rtengine15ImProcFunctions15needsDistortionEv
librtengine.so:_ZN8rtengine15ImProcFunctions15needsVignettingEv
librtengine.so:_ZN8rtengine15ImProcFunctions16Noise_residualABERNS_21wavelet_decompositionERfS3_b
librtengine.so:_ZN8rtengine15ImProcFunctions16PF_correct_RTcamEPNS_8CieImageEdi
librtengine.so:_ZN8rtengine15ImProcFunctions16RGB_denoise_infoEPNS_10ImagefloatES2_bR3LUTIfEfffRKNS_10procparams19DirPyrDenoiseParamsEdRfRiSA_SA_SA_SA_SA_SA_SA_SA_SA_SA_SA_SA_SA_b
librtengine.so:_ZN8rtengine15ImProcFunctions16WaveletcontAllABEPNS_8LabImageEPPfS4_RNS_21wavelet_decompositionERKNS_16WavOpacityCurveWERNS_11cont_paramsEb
librtengine.so:_ZN8rtengine15ImProcFunctions16deconvsharpeningEPPfS2_iiRKNS_10procparams16SharpeningParamsE
librtengine.so:_ZN8rtengine15ImProcFunctions16dirpyr_equalizerEPPfS2_iiS2_S2_PKdddfffi
librtengine.so:_ZN8rtengine15ImProcFunctions16needsPerspectiveEv
librtengine.so:_ZN8rtengine15ImProcFunctions16transformGeneralEbPNS_10ImagefloatES2_iiiiiiiiPKNS_14LensCorrectionE
librtengine.so:_ZN8rtengine15ImProcFunctions17WaveletAandBAllABERNS_21wavelet_decompositionES2_RNS_11cont_paramsEPNS_9FlatCurveEb
librtengine.so:_ZN8rtengine15ImProcFunctions17impulsedenoisecamEPNS_8CieImageEPPPf
librtengine.so:_ZN8rtengine15ImProcFunctions17needsPCVignettingEv
librtengine.so:_ZN8rtengine15ImProcFunctions17shadowsHighlightsEPNS_8LabImageE
librtengine.so:_ZN8rtengine15ImProcFunctions18MLmicrocontrastcamEPNS_8CieImageE
librtengine.so:_ZN8rtengine15ImProcFunctions18RGBoutput_tile_rowEPfPS1_S2_iii
librtengine.so:_ZN8rtengine15ImProcFunctions18WaveletDenoiseAllLERNS_21wavelet_decompositionEPfPA3_fS3_i
librtengine.so:_ZN8rtengine15ImProcFunctions18colorToningLabGridEPNS_8LabImageEiiiib
librtengine.so:_ZN8rtengine15ImProcFunctions18idirpyr_eq_channelEPPfS2_S2_iiiS1_dS2_S2_dfff
librtengine.so:_ZN8rtengine15ImProcFunctions18transformLCPCAOnlyEPNS_10ImagefloatES2_iiPKNS_14LensCorrectionE
librtengine.so:_ZN8rtengine15ImProcFunctions19WaveletDenoiseAllABERNS_21wavelet_decompositionES2_PfPA3_ffbbb
librtengine.so:_ZN8rtengine15ImProcFunctions19dirpyr_equalizercamEPNS_8CieImageEPPfS4_iiS4_S4_PKdddbfffi
librtengine.so:_ZN8rtengine15ImProcFunctions19updateColorProfilesERKN4Glib7ustringENS_15RenderingIntentEbb
librtengine.so:_ZN8rtengine15ImProcFunctions20WaveletcontAllLfinalERNS_21wavelet_decompositionERNS_11cont_paramsEPfS5_S5_RKNS_17WavOpacityCurveWLE
librtengine.so:_ZN8rtengine15ImProcFunctions20calcVignettingParamsEiiRKNS_10procparams16VignettingParamsERdS5_S5_S5_S5_S5_
librtengine.so:_ZN8rtengine15ImProcFunctions20chromiLuminanceCurveEPNS_13PipetteBufferEiPNS_8LabImageES4_R3LUTIfES7_S7_S7_S7_S7_bbbbbbRS5_IjES9_
librtengine.so:_ZN8rtengine15ImProcFunctions20getTransformAutoFillEiiPKNS_14LensCorrectionE
librtengine.so:_ZN8rtengine15ImProcFunctions21idirpyr_eq_channelcamEPPfS2_S2_iiiS1_dS2_S2_dfff
librtengine.so:_ZN8rtengine15ImProcFunctions22WaveletDenoiseAll_infoEiRNS_21wavelet_decompositionES2_PPfS4_S4_RfRiS5_S5_S5_S5_S5_S5_iS5_S5_S5_S5_S5_S5_S5_S5_S5_S5_S5_S6_S5_S5_S5_b
librtengine.so:_ZN8rtengine15ImProcFunctions22transformLuminanceOnlyEPNS_10ImagefloatES2_iiiiii
librtengine.so:_ZN8rtengine15ImProcFunctions24RGB_denoise_infoGamCurveERKNS_10procparams19DirPyrDenoiseParamsEbR3LUTIfERfS8_S8_
librtengine.so:_ZN8rtengine15ImProcFunctions25labColorCorrectionRegionsEPNS_8LabImageE
librtengine.so:_ZN8rtengine15ImProcFunctions27WaveletDenoiseAll_BiShrinkLERNS_21wavelet_decompositionEPfPA3_f
librtengine.so:_ZN8rtengine15ImProcFunctions28WaveletDenoiseAll_BiShrinkABERNS_21wavelet_decompositionES2_PfPA3_ffbbb
librtengine.so:_ZN8rtengine15ImProcFunctions3MadEPfi
librtengine.so:_ZN8rtengine15ImProcFunctions4AverEPfiRfS2_S2_S2_
librtengine.so:_ZN8rtengine15ImProcFunctions5Eval2EPPfiiiS1_S1_S1_S1_S1_S1_
librtengine.so:_ZN8rtengine15ImProcFunctions5SigmaEPfiffRfS2_
librtengine.so:_ZN8rtengine15ImProcFunctions6MadMaxEPfRii
librtengine.so:_ZN8rtengine15ImProcFunctions6MadRgbEPfi
librtengine.so:_ZN8rtengine15ImProcFunctions6dehazeEPNS_10ImagefloatE
librtengine.so:_ZN8rtengine15ImProcFunctions6moyeqtEPNS_10ImagefloatERfS3_
librtengine.so:_ZN8rtengine15ImProcFunctions6resizeEPNS_10ImagefloatES2_f
librtengine.so:_ZN8rtengine15ImProcFunctions7LanczosEPKNS_10ImagefloatEPS1_f
librtengine.so:_ZN8rtengine15ImProcFunctions7LanczosEPKNS_8LabImageEPS1_f
librtengine.so:_ZN8rtengine15ImProcFunctions7calckoeEPPfRKNS_11cont_paramsES2_iiiifS1_S2_
librtengine.so:_ZN8rtengine15ImProcFunctions7lab2rgbEPNS_8LabImageEiiiiRKNS_10procparams21ColorManagementParamsEb
librtengine.so:_ZN8rtengine15ImProcFunctions7lab2rgbERKNS_8LabImageERNS_10ImagefloatERKN4Glib7ustringE
librtengine.so:_ZN8rtengine15ImProcFunctions7needsCAEv
librtengine.so:_ZN8rtengine15ImProcFunctions7rgb2labERKNS_10ImagefloatERNS_8LabImageERKN4Glib7ustringE
librtengine.so:_ZN8rtengine15ImProcFunctions7rgbProcEPNS_10ImagefloatEPNS_8LabImageEPNS_13PipetteBufferER3LUTIfES9_S9_iS9_S9_S9_ffRKNS_18ColorGradientCurveERKNS_12OpacityCurveEbS9_S9_RKNS_9ToneCurveESI_SI_SI_RdSJ_SJ_RfSK_SK_PNS_10DCPProfileERKNSL_10ApplyStateERS7_IjEmb
librtengine.so:_ZN8rtengine15ImProcFunctions7rgbProcEPNS_10ImagefloatEPNS_8LabImageEPNS_13PipetteBufferER3LUTIfES9_S9_iS9_S9_S9_ffRKNS_18ColorGradientCurveERKNS_12OpacityCurveEbS9_S9_RKNS_9ToneCurveESI_SI_SI_RdSJ_SJ_RfSK_SK_diiPNS_10DCPProfileERKNSL_10ApplyStateERS7_IjEmb
librtengine.so:_ZN8rtengine15ImProcFunctions8ContAllLEPPfS1_biPNS_8LabImageES2_S2_S2_S1_iiRNS_11cont_paramsEiiiS1_S1_S1_S1_RKNS_8WavCurveERKNS_16WavOpacityCurveWEPNS_9FlatCurveEb
librtengine.so:_ZN8rtengine15ImProcFunctions8defringeEPNS_8LabImageE
librtengine.so:_ZN8rtengine15ImProcFunctions8needsLCPEv
librtengine.so:_ZN8rtengine15ImProcFunctions8setScaleEd
librtengine.so:_ZN8rtengine15ImProcFunctions8vibranceEPNS_8LabImageE
librtengine.so:_ZN8rtengine15ImProcFunctions9ContAllABEPNS_8LabImageEiPPfS4_S4_S3_iiRKNS_16WavOpacityCurveWERNS_11cont_paramsEiib
librtengine.so:_ZN8rtengine15ImProcFunctions9Evaluate2ERNS_21wavelet_decompositionEPfS3_S3_S3_S3_S3_
librtengine.so:_ZN8rtengine15ImProcFunctions9MLsharpenEPNS_8LabImageE
librtengine.so:_ZN8rtengine15ImProcFunctions9Tile_calcEiiiiiRiS1_S1_S1_S1_S1_
librtengine.so:_ZN8rtengine15ImProcFunctions9badpixcamEPNS_8CieImageEdiifb
librtengine.so:_ZN8rtengine15ImProcFunctions9badpixlabEPNS_8LabImageEdif
librtengine.so:_ZN8rtengine15ImProcFunctions9labtoningEfffRfS1_S1_iiiffRKNS_18ColorGradientCurveERKNS_12OpacityCurveER3LUTIfESA_ffPA3_dSC_
librtengine.so:_ZN8rtengine15ImProcFunctions9softLightEPNS_8LabImageE
librtengine.so:_ZN8rtengine15ImProcFunctions9toningsmhEfffRfS1_S1_ffffffffffif
librtengine.so:_ZN8rtengine15ImProcFunctions9transformEPNS_10ImagefloatES2_iiiiiiiiPKNS_14FramesMetaDataEib
librtengine.so:_ZN8rtengine15ImProcFunctionsD1Ev
librtengine.so:_ZN8rtengine15ImProcFunctionsD2Ev
librtengine.so:_ZN8rtengine15PDAFLinesFilter16greenEqThresholdEv
librtengine.so:_ZN8rtengine15PDAFLinesFilter21lineDenoiseRowBlenderEv
librtengine.so:_ZN8rtengine15PDAFLinesFilter4markER7array2DIfERNS_9PixelsMapE
librtengine.so:_ZN8rtengine15PDAFLinesFilter8markLineER7array2DIfERNS_9PixelsMapEi
librtengine.so:_ZN8rtengine15PDAFLinesFilterC1EPNS_8RawImageE
librtengine.so:_ZN8rtengine15PDAFLinesFilterC2EPNS_8RawImageE
librtengine.so:_ZN8rtengine15PDAFLinesFilterD1Ev
librtengine.so:_ZN8rtengine15PDAFLinesFilterD2Ev
librtengine.so:_ZN8rtengine15hasPngExtensionERKN4Glib7ustringE
librtengine.so:_ZN8rtengine16WavOpacityCurveW3SetERKNS_5CurveE
librtengine.so:_ZN8rtengine16WavOpacityCurveW3SetERKSt6vectorIdSaIdEE
librtengine.so:_ZN8rtengine16WavOpacityCurveW5ResetEv
librtengine.so:_ZN8rtengine16WavOpacityCurveWC1Ev
librtengine.so:_ZN8rtengine16WavOpacityCurveWC2Ev
librtengine.so:_ZN8rtengine16getCoarseBitMaskERKNS_10procparams21CoarseTransformParamsE
librtengine.so:_ZN8rtengine16getFileExtensionERKN4Glib7ustringE
librtengine.so:_ZN8rtengine16hasJpegExtensionERKN4Glib7ustringE
librtengine.so:_ZN8rtengine16hasTiffExtensionERKN4Glib7ustringE
librtengine.so:_ZN8rtengine17ImProcCoordinator10createCropEP16EditDataProviderb
librtengine.so:_ZN8rtengine17ImProcCoordinator11getAutoCropEdRiS1_S1_S1_
librtengine.so:_ZN8rtengine17ImProcCoordinator12setSharpMaskEb
librtengine.so:_ZN8rtengine17ImProcCoordinator14stopProcessingEv
librtengine.so:_ZN8rtengine17ImProcCoordinator15endUpdateParamsENS_9ProcEventE
librtengine.so:_ZN8rtengine17ImProcCoordinator15endUpdateParamsEi
librtengine.so:_ZN8rtengine17ImProcCoordinator15getSoftProofingERbS1_
librtengine.so:_ZN8rtengine17ImProcCoordinator15setSoftProofingEbb
librtengine.so:_ZN8rtengine17ImProcCoordinator15startProcessingEi
librtengine.so:_ZN8rtengine17ImProcCoordinator15startProcessingEv
librtengine.so:_ZN8rtengine17ImProcCoordinator17beginUpdateParamsEv
librtengine.so:_ZN8rtengine17ImProcCoordinator17setMonitorProfileERKN4Glib7ustringENS_15RenderingIntentE
librtengine.so:_ZN8rtengine17ImProcCoordinator18updatePreviewImageEib
librtengine.so:_ZN8rtengine17ImProcCoordinator19getHighQualComputedEv
librtengine.so:_ZN8rtengine17ImProcCoordinator19setHighQualComputedEv
librtengine.so:_ZN8rtengine17ImProcCoordinator20updateLRGBHistogramsEv
librtengine.so:_ZN8rtengine17ImProcCoordinator21saveInputICCReferenceERKN4Glib7ustringEb
librtengine.so:_ZN8rtengine17ImProcCoordinator6assignEPNS_11ImageSourceE
librtengine.so:_ZN8rtengine17ImProcCoordinator7freeAllEv
librtengine.so:_ZN8rtengine17ImProcCoordinator7processEv
librtengine.so:_ZN8rtengine17ImProcCoordinator8getCamWBERdS1_
librtengine.so:_ZN8rtengine17ImProcCoordinator8progressEN4Glib7ustringEi
librtengine.so:_ZN8rtengine17ImProcCoordinator8setScaleEi
librtengine.so:_ZN8rtengine17ImProcCoordinator9getAutoWBERdS1_dd
librtengine.so:_ZN8rtengine17ImProcCoordinator9getParamsEPNS_10procparams10ProcParamsE
librtengine.so:_ZN8rtengine17ImProcCoordinator9getSpotWBEiiiRdS1_
librtengine.so:_ZN8rtengine17ImProcCoordinatorC1Ev
librtengine.so:_ZN8rtengine17ImProcCoordinatorC2Ev
librtengine.so:_ZN8rtengine17ImProcCoordinatorD0Ev
librtengine.so:_ZN8rtengine17ImProcCoordinatorD1Ev
librtengine.so:_ZN8rtengine17ImProcCoordinatorD2Ev
librtengine.so:_ZN8rtengine17WavOpacityCurveBY3SetERKNS_5CurveE
librtengine.so:_ZN8rtengine17WavOpacityCurveBY3SetERKSt6vectorIdSaIdEE
librtengine.so:_ZN8rtengine17WavOpacityCurveBY5ResetEv
librtengine.so:_ZN8rtengine17WavOpacityCurveBYC1Ev
librtengine.so:_ZN8rtengine17WavOpacityCurveBYC2Ev
librtengine.so:_ZN8rtengine17WavOpacityCurveRG3SetERKNS_5CurveE
librtengine.so:_ZN8rtengine17WavOpacityCurveRG3SetERKSt6vectorIdSaIdEE
librtengine.so:_ZN8rtengine17WavOpacityCurveRG5ResetEv
librtengine.so:_ZN8rtengine17WavOpacityCurveRGC1Ev
librtengine.so:_ZN8rtengine17WavOpacityCurveRGC2Ev
librtengine.so:_ZN8rtengine17WavOpacityCurveWL3SetERKNS_5CurveE
librtengine.so:_ZN8rtengine17WavOpacityCurveWL3SetERKSt6vectorIdSaIdEE
librtengine.so:_ZN8rtengine17WavOpacityCurveWL5ResetEv
librtengine.so:_ZN8rtengine17WavOpacityCurveWLC1Ev
librtengine.so:_ZN8rtengine17WavOpacityCurveWLC2Ev
librtengine.so:_ZN8rtengine17fillCurveArrayVibEPNS_13DiagonalCurveER3LUTIfE
librtengine.so:_ZN8rtengine18ColorGradientCurve5ResetEv
librtengine.so:_ZN8rtengine18ColorGradientCurve6SetRGBEPKNS_5CurveE
librtengine.so:_ZN8rtengine18ColorGradientCurve6SetRGBERKSt6vectorIdSaIdEE
librtengine.so:_ZN8rtengine18ColorGradientCurve6SetXYZEPKNS_5CurveEPA3_Kdff
librtengine.so:_ZN8rtengine18ColorGradientCurve6SetXYZERKSt6vectorIdSaIdEEPA3_Kdff
librtengine.so:_ZN8rtengine19PerceptualToneCurve12cubic_splineEPKfS2_iS2_Pfi
librtengine.so:_ZN8rtengine19PerceptualToneCurve13get_curve_valEfPfS1_m
librtengine.so:_ZN8rtengine19PerceptualToneCurve17find_tc_slope_funEfPv
librtengine.so:_ZN8rtengine19PerceptualToneCurve29find_minimum_interval_halvingEPFffPvES1_fffi
librtengine.so:_ZN8rtengine19PerceptualToneCurve4initEv
librtengine.so:_ZN8rtengine19calculate_scale_mulEPfPKfS2_S2_bi
librtengine.so:_ZN8rtengine20CameraConstantsStore11getInstanceEv
librtengine.so:_ZN8rtengine20CameraConstantsStore27parse_camera_constants_fileEN4Glib7ustringE
librtengine.so:_ZN8rtengine20CameraConstantsStore3getEPKcS2_
librtengine.so:_ZN8rtengine20CameraConstantsStore4initEN4Glib7ustringES2_
librtengine.so:_ZN8rtengine20CameraConstantsStoreC1Ev
librtengine.so:_ZN8rtengine20CameraConstantsStoreC2Ev
librtengine.so:_ZN8rtengine20CameraConstantsStoreD1Ev
librtengine.so:_ZN8rtengine20CameraConstantsStoreD2Ev
librtengine.so:_ZN8rtengine20StagedImageProcessor6createEPNS_12InitialImageE
librtengine.so:_ZN8rtengine20StagedImageProcessor7destroyEPS0_
librtengine.so:_ZN8rtengine20findMinMaxPercentileEPKfmfRffS2_b
librtengine.so:_ZN8rtengine20startBatchProcessingEPNS_13ProcessingJobEPNS_23BatchProcessingListenerE
librtengine.so:_ZN8rtengine21batchProcessingThreadEPNS_13ProcessingJobEPNS_23BatchProcessingListenerE
librtengine.so:_ZN8rtengine21wavelet_decompositionD1Ev
librtengine.so:_ZN8rtengine21wavelet_decompositionD2Ev
librtengine.so:_ZN8rtengine24RetinextransmissionCurve3SetERKNS_5CurveE
librtengine.so:_ZN8rtengine24RetinextransmissionCurve3SetERKSt6vectorIdSaIdEE
librtengine.so:_ZN8rtengine24RetinextransmissionCurve5ResetEv
librtengine.so:_ZN8rtengine24RetinextransmissionCurveC1Ev
librtengine.so:_ZN8rtengine24RetinextransmissionCurveC2Ev
librtengine.so:_ZN8rtengine28RetinexgaintransmissionCurve3SetERKNS_5CurveE
librtengine.so:_ZN8rtengine28RetinexgaintransmissionCurve3SetERKSt6vectorIdSaIdEE
librtengine.so:_ZN8rtengine28RetinexgaintransmissionCurve5ResetEv
librtengine.so:_ZN8rtengine28RetinexgaintransmissionCurveC1Ev
librtengine.so:_ZN8rtengine28RetinexgaintransmissionCurveC2Ev
librtengine.so:_ZN8rtengine4Crop10fullUpdateEv
librtengine.so:_ZN8rtengine4Crop11hasListenerEv
librtengine.so:_ZN8rtengine4Crop11setListenerEPNS_20DetailedCropListenerE
librtengine.so:_ZN8rtengine4Crop12setCropSizesEiiiiib
librtengine.so:_ZN8rtengine4Crop13getCurrEditIDEv
librtengine.so:_ZN8rtengine4Crop13getLeftBorderEv
librtengine.so:_ZN8rtengine4Crop14getUpperBorderEv
librtengine.so:_ZN8rtengine4Crop17setEditSubscriberEP14EditSubscriber
librtengine.so:_ZN8rtengine4Crop6updateEi
librtengine.so:_ZN8rtengine4Crop7destroyEv
librtengine.so:_ZN8rtengine4Crop7freeAllEv
librtengine.so:_ZN8rtengine4Crop8get_skipEv
librtengine.so:_ZN8rtengine4Crop9tryUpdateEv
librtengine.so:_ZN8rtengine4CropC1EPNS_17ImProcCoordinatorEP16EditDataProviderb
librtengine.so:_ZN8rtengine4CropC2EPNS_17ImProcCoordinatorEP16EditDataProviderb
librtengine.so:_ZN8rtengine4CropD0Ev
librtengine.so:_ZN8rtengine4CropD1Ev
librtengine.so:_ZN8rtengine4CropD2Ev
librtengine.so:_ZN8rtengine4initEPKNS_8SettingsEN4Glib7ustringES4_b
librtengine.so:_ZN8rtengine4swabEPKvPvl
librtengine.so:_ZN8rtengine5Color10MunsellLchEffffRfiS1_Rb
librtengine.so:_ZN8rtengine5Color10gammaf2lutER3LUTIfEfffff
librtengine.so:_ZN8rtengine5Color10transitredEffffffffRf
librtengine.so:_ZN8rtengine5Color10trcGammaBWERfS1_S1_fff
librtengine.so:_ZN8rtengine5Color11ProphotoxyzEfffRfS1_S1_
librtengine.so:_ZN8rtengine5Color11gammanf2lutER3LUTIfEfff
librtengine.so:_ZN8rtengine5Color11initMunsellEv
librtengine.so:_ZN8rtengine5Color12gamutLchonlyE6float2RfS2_PA3_Kfbff
librtengine.so:_ZN8rtengine5Color12gamutLchonlyEf6float2RfS2_S2_PA3_Kfbff
librtengine.so:_ZN8rtengine5Color12gamutLchonlyEf6float2RfS2_S2_S2_S2_PA3_Kdbff
librtengine.so:_ZN8rtengine5Color12gamutLchonlyEfRfS1_S1_S1_S1_PA3_Kdbff
librtengine.so:_ZN8rtengine5Color12hue2rgbfloatEfff
librtengine.so:_ZN8rtengine5Color12skinredfloatEffffffiffRf
librtengine.so:_ZN8rtengine5Color12xyz2ProphotoEfffRfS1_S1_
librtengine.so:_ZN8rtengine5Color13AllMunsellLchEbfffffRfS1_
librtengine.so:_ZN8rtengine5Color13AllMunsellLchEffffRf
librtengine.so:_ZN8rtengine5Color13trcGammaBWRowEPfS1_S1_ifff
librtengine.so:_ZN8rtengine5Color15LabGamutMunsellEPfS1_S1_ibbbbPA3_Kd
librtengine.so:_ZN8rtengine5Color19interpolateRGBColorEfffffffiPA3_KdS3_RfS4_S4_
librtengine.so:_ZN8rtengine5Color19interpolateRGBColorEfffifiifffffffffffPA3_KdS3_RfS4_S4_
librtengine.so:_ZN8rtengine5Color23computeBWMixerConstantsERKN4Glib7ustringES4_S4_RfS5_S5_S5_fffffbbS5_RdS6_S6_
librtengine.so:_ZN8rtengine5Color4initEv
librtengine.so:_ZN8rtengine5Color5L2XYZEfRfS1_S1_
librtengine.so:_ZN8rtengine5Color5RGB2LEPfS1_S1_S1_PA3_Kfi
librtengine.so:_ZN8rtengine5Color5xyz2rEfffRfPA3_Kd
librtengine.so:_ZN8rtengine5Color6rgbxyzEDv4_fS1_S1_RS1_S2_S2_PA3_KS1_
librtengine.so:_ZN8rtengine5Color6rgbxyzEfffRfS1_S1_PA3_Kd
librtengine.so:_ZN8rtengine5Color6rgbxyzEfffRfS1_S1_PA3_Kf
librtengine.so:_ZN8rtengine5Color7Lab2LchEPfS1_S1_S1_i
librtengine.so:_ZN8rtengine5Color7Lab2LchEffRfS1_
librtengine.so:_ZN8rtengine5Color7Lab2XYZEDv4_fS1_S1_RS1_S2_S2_
librtengine.so:_ZN8rtengine5Color7Lab2XYZEfffRfS1_S1_
librtengine.so:_ZN8rtengine5Color7Lab2YuvEfffRfS1_S1_
librtengine.so:_ZN8rtengine5Color7Lch2LabEffRfS1_
librtengine.so:_ZN8rtengine5Color7Lch2LuvEffRfS1_
librtengine.so:_ZN8rtengine5Color7Luv2LchEffRfS1_
librtengine.so:_ZN8rtengine5Color7Luv2XYZEfffRfS1_S1_
librtengine.so:_ZN8rtengine5Color7RGB2LabEPfS1_S1_S1_S1_S1_PA3_Kfi
librtengine.so:_ZN8rtengine5Color7SkinSatEfffRf
librtengine.so:_ZN8rtengine5Color7XYZ2LabEfffRfS1_S1_
librtengine.so:_ZN8rtengine5Color7XYZ2LuvEfffRfS1_S1_
librtengine.so:_ZN8rtengine5Color7Yuv2LabEfffRfS1_S1_PA3_Kd
librtengine.so:_ZN8rtengine5Color7cleanupEv
librtengine.so:_ZN8rtengine5Color7hsl2rgbEDv4_fS1_S1_RS1_S2_S2_
librtengine.so:_ZN8rtengine5Color7hsl2rgbEfffRfS1_S1_
librtengine.so:_ZN8rtengine5Color7hsv2rgbEfffRfS1_S1_
librtengine.so:_ZN8rtengine5Color7hsv2rgbEfffRiS1_S1_
librtengine.so:_ZN8rtengine5Color7hue2rgbEDv4_fS1_S1_
librtengine.so:_ZN8rtengine5Color7hue2rgbEddd
librtengine.so:_ZN8rtengine5Color7rgb2hslEDv4_fS1_S1_RS1_S2_S2_
librtengine.so:_ZN8rtengine5Color7rgb2hslEfffRfS1_S1_
librtengine.so:_ZN8rtengine5Color7rgb2hsvEfffRfS1_S1_
librtengine.so:_ZN8rtengine5Color7skinredEddddffiffRd
librtengine.so:_ZN8rtengine5Color7xyz2rgbEDv4_fS1_S1_RS1_S2_S2_PA3_KS1_
librtengine.so:_ZN8rtengine5Color7xyz2rgbEfffRfS1_S1_PA3_Kd
librtengine.so:_ZN8rtengine5Color7xyz2rgbEfffRfS1_S1_PA3_Kf
librtengine.so:_ZN8rtengine5Color8gamutmapERfS1_S1_PA3_Kd
librtengine.so:_ZN8rtengine5Color8scaleredEfffffRfS1_
librtengine.so:_ZN8rtengine5Color8xyz2srgbEfffRfS1_S1_
librtengine.so:_ZN8rtengine5Color9calcGammaEddiRSt5arrayIdLm7EE
librtengine.so:_ZN8rtengine5Color9hsl2rgb01EfffRfS1_S1_
librtengine.so:_ZN8rtengine5Color9hsv2rgb01EfffRfS1_S1_
librtengine.so:_ZN8rtengine5Color9rgb2hsv01EfffRfS1_S1_
librtengine.so:_ZN8rtengine5Color9rgb2lab01ERKN4Glib7ustringES4_fffRfS5_S5_b
librtengine.so:_ZN8rtengine5Coord4clipEii
librtengine.so:_ZN8rtengine5CoordaSERKNS_10PolarCoordE
librtengine.so:_ZN8rtengine5Curve10fillDyByDxEv
librtengine.so:_ZN8rtengine5Curve11AddPolygonsEv
librtengine.so:_ZN8rtengine5Curve8fillHashEv
librtengine.so:_ZN8rtengine5CurveC1Ev
librtengine.so:_ZN8rtengine5CurveC2Ev
librtengine.so:_ZN8rtengine5SHMap12dirpyr_shmapEPPfS2_iiR3LUTIfEii
librtengine.so:_ZN8rtengine5SHMap13fillLuminanceEPNS_10ImagefloatEPPfPd
librtengine.so:_ZN8rtengine5SHMap14fillLuminanceLEPPfS2_
librtengine.so:_ZN8rtengine5SHMap6updateEPNS_10ImagefloatEdPdbi
librtengine.so:_ZN8rtengine5SHMap7updateLEPPfdbi
librtengine.so:_ZN8rtengine5SHMap9forceStatEfff
librtengine.so:_ZN8rtengine5SHMapC1Eii
librtengine.so:_ZN8rtengine5SHMapC2Eii
librtengine.so:_ZN8rtengine5SHMapD1Ev
librtengine.so:_ZN8rtengine5SHMapD2Ev
librtengine.so:_ZN8rtengine5hflipEPhii
librtengine.so:_ZN8rtengine5vflipEPhii
librtengine.so:_ZN8rtengine6Image811setScanlineEiPhij
librtengine.so:_ZN8rtengine6Image8C1Eii
librtengine.so:_ZN8rtengine6Image8C1Ev
librtengine.so:_ZN8rtengine6Image8C2Eii
librtengine.so:_ZN8rtengine6Image8C2Ev
librtengine.so:_ZN8rtengine6Image8D0Ev
librtengine.so:_ZN8rtengine6Image8D1Ev
librtengine.so:_ZN8rtengine6Image8D2Ev
librtengine.so:_ZN8rtengine6LFLensC1Ev
librtengine.so:_ZN8rtengine6LFLensC2Ev
librtengine.so:_ZN8rtengine6dfInfo11getRawImageEv
librtengine.so:_ZN8rtengine6dfInfo12getHotPixelsEv
librtengine.so:_ZN8rtengine6dfInfo14updateRawImageEv
librtengine.so:_ZN8rtengine6dfInfo18updateBadPixelListEPNS_8RawImageE
librtengine.so:_ZN8rtengine6dfInfo3keyERKNSt7__cxx1112basic_stringIcSt11char_traitsIcESaIcEEES8_id
librtengine.so:_ZN8rtengine6ffInfo11getRawImageEv
librtengine.so:_ZN8rtengine6ffInfo14updateRawImageEv
librtengine.so:_ZN8rtengine6ffInfo3keyERKNSt7__cxx1112basic_stringIcSt11char_traitsIcESaIcEEES8_S8_dd
librtengine.so:_ZN8rtengine6rotateEPhRiS1_i
librtengine.so:_ZN8rtengine7Image1611setScanlineEiPhij
librtengine.so:_ZN8rtengine7Image1616ExecCMSTransformEPv
librtengine.so:_ZN8rtengine7Image16C1Eii
librtengine.so:_ZN8rtengine7Image16C1Ev
librtengine.so:_ZN8rtengine7Image16C2Eii
librtengine.so:_ZN8rtengine7Image16C2Ev
librtengine.so:_ZN8rtengine7Image16D0Ev
librtengine.so:_ZN8rtengine7Image16D1Ev
librtengine.so:_ZN8rtengine7Image16D2Ev
librtengine.so:_ZN8rtengine7ImageIO11setMetadataEPKN6rtexif12TagDirectoryE
librtengine.so:_ZN8rtengine7ImageIO11setMetadataEPKN6rtexif12TagDirectoryERKNS_10procparams9ExifPairsERKNS5_9IPTCPairsE
librtengine.so:_ZN8rtengine7ImageIO15setSampleFormatENS_17IIO_Sample_FormatE
librtengine.so:_ZN8rtengine7ImageIO16setOutputProfileEPKci
librtengine.so:_ZN8rtengine7ImageIO17loadPPMFromMemoryEPKciibi
librtengine.so:_ZN8rtengine7ImageIO18getPNGSampleFormatERKN4Glib7ustringERNS_17IIO_Sample_FormatERNS_22IIO_Sample_ArrangementE
librtengine.so:_ZN8rtengine7ImageIO18loadJPEGFromMemoryEPKci
librtengine.so:_ZN8rtengine7ImageIO19getTIFFSampleFormatERKN4Glib7ustringERNS_17IIO_Sample_FormatERNS_22IIO_Sample_ArrangementE
librtengine.so:_ZN8rtengine7ImageIO19setProgressListenerEPNS_16ProgressListenerE
librtengine.so:_ZN8rtengine7ImageIO20setSampleArrangementENS_22IIO_Sample_ArrangementE
librtengine.so:_ZN8rtengine7ImageIO23deleteLoadedProfileDataEv
librtengine.so:_ZN8rtengine7ImageIO4loadERKN4Glib7ustringE
librtengine.so:_ZN8rtengine7ImageIO5mutexEv
librtengine.so:_ZN8rtengine7ImageIO7loadPNGERKN4Glib7ustringE
librtengine.so:_ZN8rtengine7ImageIO8loadJPEGERKN4Glib7ustringE
librtengine.so:_ZN8rtengine7ImageIO8loadTIFFERKN4Glib7ustringE
librtengine.so:_ZN8rtengine7ImageIOC1Ev
librtengine.so:_ZN8rtengine7ImageIOC2Ev
librtengine.so:_ZN8rtengine7ImageIOD0Ev
librtengine.so:_ZN8rtengine7ImageIOD1Ev
librtengine.so:_ZN8rtengine7ImageIOD2Ev
librtengine.so:_ZN8rtengine7cleanupEv
librtengine.so:_ZN8rtengine8CieImage8CopyFromEPS0_
librtengine.so:_ZN8rtengine8CieImageC1Eii
librtengine.so:_ZN8rtengine8CieImageC2Eii
librtengine.so:_ZN8rtengine8CieImageD1Ev
librtengine.so:_ZN8rtengine8CieImageD2Ev
librtengine.so:_ZN8rtengine8Ciecam0211curveJfloatEffRK3LUTIjERS1_IfE
librtengine.so:_ZN8rtengine8Ciecam0213d_factorfloatEff
librtengine.so:_ZN8rtengine8Ciecam0213initcam1floatEfffffffRfS1_S1_S1_S1_S1_S1_S1_S1_S1_
librtengine.so:_ZN8rtengine8Ciecam0213initcam2floatEfffffffRfS1_S1_S1_S1_S1_S1_
librtengine.so:_ZN8rtengine8Ciecam0215Aab_to_rgbfloatERDv4_fS2_S2_S1_S1_S1_S1_
librtengine.so:_ZN8rtengine8Ciecam0215Aab_to_rgbfloatERfS1_S1_ffff
librtengine.so:_ZN8rtengine8Ciecam0215curvecolorfloatEffRff
librtengine.so:_ZN8rtengine8Ciecam0215hpe_to_xyzfloatERDv4_fS2_S2_S1_S1_S1_
librtengine.so:_ZN8rtengine8Ciecam0215hpe_to_xyzfloatERfS1_S1_fff
librtengine.so:_ZN8rtengine8Ciecam0217calculate_abfloatERDv4_fS2_S1_S1_S1_S1_S1_
librtengine.so:_ZN8rtengine8Ciecam0217calculate_abfloatERfS1_fffff
librtengine.so:_ZN8rtengine8Ciecam0217cat02_to_hpefloatERDv4_fS2_S2_S1_S1_S1_
librtengine.so:_ZN8rtengine8Ciecam0217cat02_to_hpefloatERfS1_S1_fff
librtengine.so:_ZN8rtengine8Ciecam0217cat02_to_xyzfloatERDv4_fS2_S2_S1_S1_S1_
librtengine.so:_ZN8rtengine8Ciecam0217cat02_to_xyzfloatERfS1_S1_fff
librtengine.so:_ZN8rtengine8Ciecam0217xyz_to_cat02floatERDv4_fS2_S2_S1_S1_S1_
librtengine.so:_ZN8rtengine8Ciecam0217xyz_to_cat02floatERfS1_S1_fff
librtengine.so:_ZN8rtengine8Ciecam0221jch2xyz_ciecam02floatERDv4_fS2_S2_S1_S1_S1_S1_S1_S1_S1_S1_S1_S1_S1_S1_S1_S1_
librtengine.so:_ZN8rtengine8Ciecam0221jch2xyz_ciecam02floatERfS1_S1_fffffffffffffff
librtengine.so:_ZN8rtengine8Ciecam0221xyz2jch_ciecam02floatERfS1_S1_fffffffffffffff
librtengine.so:_ZN8rtengine8Ciecam0224xyz2jchqms_ciecam02floatERDv4_fS2_S2_S2_S2_S2_S1_S1_S1_S1_S1_S1_S1_S1_S1_S1_S1_S1_S1_S1_S1_S1_S1_
librtengine.so:_ZN8rtengine8Ciecam0224xyz2jchqms_ciecam02floatERfS1_S1_S1_S1_S1_fffffffffffffffff
librtengine.so:_ZN8rtengine8Ciecam0225nonlinear_adaptationfloatEDv4_fS1_
librtengine.so:_ZN8rtengine8Ciecam0225nonlinear_adaptationfloatEff
librtengine.so:_ZN8rtengine8Ciecam0233achromatic_response_to_whitefloatEffffff
librtengine.so:_ZN8rtengine8Ciecam0233inverse_nonlinear_adaptationfloatEDv4_fS1_
librtengine.so:_ZN8rtengine8Ciecam0233inverse_nonlinear_adaptationfloatEff
librtengine.so:_ZN8rtengine8Ciecam0234calculate_fl_from_la_ciecam02floatEf
librtengine.so:_ZN8rtengine8DCPStore11getInstanceEv
librtengine.so:_ZN8rtengine8DCPStore4initERKN4Glib7ustringEb
librtengine.so:_ZN8rtengine8DCPStoreD1Ev
librtengine.so:_ZN8rtengine8DCPStoreD2Ev
librtengine.so:_ZN8rtengine8HaldCLUT17splitClutFilenameERKN4Glib7ustringERS2_S5_S5_
librtengine.so:_ZN8rtengine8HaldCLUT4loadERKN4Glib7ustringE
librtengine.so:_ZN8rtengine8HaldCLUTC1Ev
librtengine.so:_ZN8rtengine8HaldCLUTC2Ev
librtengine.so:_ZN8rtengine8HaldCLUTD1Ev
librtengine.so:_ZN8rtengine8HaldCLUTD2Ev
librtengine.so:_ZN8rtengine8ICCStore11getInstanceEv
librtengine.so:_ZN8rtengine8ICCStore16createFromMatrixEPA3_KdbRKN4Glib7ustringE
librtengine.so:_ZN8rtengine8ICCStore18getWorkingProfilesEv
librtengine.so:_ZN8rtengine8ICCStore19makeStdGammaProfileEPv
librtengine.so:_ZN8rtengine8ICCStore28setDefaultMonitorProfileNameERKN4Glib7ustringE
librtengine.so:_ZN8rtengine8ICCStore4initERKN4Glib7ustringES4_b
librtengine.so:_ZN8rtengine8ICCStoreC1Ev
librtengine.so:_ZN8rtengine8ICCStoreC2Ev
librtengine.so:_ZN8rtengine8ICCStoreD1Ev
librtengine.so:_ZN8rtengine8ICCStoreD2Ev
librtengine.so:_ZN8rtengine8LCPStore11getInstanceEv
librtengine.so:_ZN8rtengine8LCPStoreC1Ej
librtengine.so:_ZN8rtengine8LCPStoreC2Ej
librtengine.so:_ZN8rtengine8LFCameraC1Ev
librtengine.so:_ZN8rtengine8LFCameraC2Ev
librtengine.so:_ZN8rtengine8LabImage10reallocLabEv
librtengine.so:_ZN8rtengine8LabImage14getPipetteDataERfS1_S1_iii
librtengine.so:_ZN8rtengine8LabImage8CopyFromEPS0_
librtengine.so:_ZN8rtengine8LabImage8allocLabEmm
librtengine.so:_ZN8rtengine8LabImage9deleteLabEv
librtengine.so:_ZN8rtengine8LabImageC1Eii
librtengine.so:_ZN8rtengine8LabImageC2Eii
librtengine.so:_ZN8rtengine8LabImageD1Ev
librtengine.so:_ZN8rtengine8LabImageD2Ev
librtengine.so:_ZN8rtengine8RawImage13getSensorTypeEv
librtengine.so:_ZN8rtengine8RawImage14compress_imageEjb
librtengine.so:_ZN8rtengine8RawImage15getXtransMatrixEPA6_i
librtengine.so:_ZN8rtengine8RawImage15get_colorsCoeffEPfS1_S1_b
librtengine.so:_ZN8rtengine8RawImage7loadRawEbjbPNS_16ProgressListenerEd
librtengine.so:_ZN8rtengine8RawImage9getRgbCamEPA4_f
librtengine.so:_ZN8rtengine8RawImageC1ERKN4Glib7ustringE
librtengine.so:_ZN8rtengine8RawImageC2ERKN4Glib7ustringE
librtengine.so:_ZN8rtengine8RawImageD1Ev
librtengine.so:_ZN8rtengine8RawImageD2Ev
librtengine.so:_ZN8rtengine8Settings6createEv
librtengine.so:_ZN8rtengine8Settings7destroyEPS0_
librtengine.so:_ZN8rtengine8WavCurve3SetERKNS_5CurveE
librtengine.so:_ZN8rtengine8WavCurve3SetERKSt6vectorIdSaIdEE
librtengine.so:_ZN8rtengine8WavCurve5ResetEv
librtengine.so:_ZN8rtengine8WavCurveC1Ev
librtengine.so:_ZN8rtengine8WavCurveC2Ev
librtengine.so:_ZN8rtengine8poke01_dERPhddd
librtengine.so:_ZN8rtengine8poke01_fERPhfff
librtengine.so:_ZN8rtengine9CLUTStore10clearCacheEv
librtengine.so:_ZN8rtengine9CLUTStore11getInstanceEv
librtengine.so:_ZN8rtengine9CLUTStoreC1Ev
librtengine.so:_ZN8rtengine9CLUTStoreC2Ev
librtengine.so:_ZN8rtengine9ColorTemp11temp2mulxyzEdRKNSt7__cxx1112basic_stringIcSt11char_traitsIcESaIcEEERdS9_
librtengine.so:_ZN8rtengine9ColorTemp14daylight_spectEddd
librtengine.so:_ZN8rtengine9ColorTemp15blackbody_spectEdd
librtengine.so:_ZN8rtengine9ColorTemp22spectrum_to_xyz_presetEPKdRdS3_S3_
librtengine.so:_ZN8rtengine9ColorTemp24spectrum_to_xyz_daylightEddRdS1_S1_
librtengine.so:_ZN8rtengine9ColorTemp25spectrum_to_xyz_blackbodyEdRdS1_S1_
librtengine.so:_ZN8rtengine9ColorTemp28spectrum_to_color_xyz_presetEPKdS2_RdS3_S3_
librtengine.so:_ZN8rtengine9ColorTemp30spectrum_to_color_xyz_daylightEPKdddRdS3_S3_
librtengine.so:_ZN8rtengine9ColorTemp31spectrum_to_color_xyz_blackbodyEPKddRdS3_S3_
librtengine.so:_ZN8rtengine9ColorTemp4clipERdS1_
librtengine.so:_ZN8rtengine9ColorTemp4clipERdS1_S1_
librtengine.so:_ZN8rtengine9ColorTemp8cieCAT02EdddRdS1_S1_S1_S1_S1_S1_S1_S1_d
librtengine.so:_ZN8rtengine9ColorTempC1EdddRKNSt7__cxx1112basic_stringIcSt11char_traitsIcESaIcEEE
librtengine.so:_ZN8rtengine9ColorTempC1Edddd
librtengine.so:_ZN8rtengine9ColorTempC2EdddRKNSt7__cxx1112basic_stringIcSt11char_traitsIcESaIcEEE
librtengine.so:_ZN8rtengine9ColorTempC2Edddd
librtengine.so:_ZN8rtengine9DFManager11addFileInfoERKN4Glib7ustringEb
librtengine.so:_ZN8rtengine9DFManager12getBadPixelsERKNSt7__cxx1112basic_stringIcSt11char_traitsIcESaIcEEES8_S8_
librtengine.so:_ZN8rtengine9DFManager12getHotPixelsEN4Glib7ustringE
librtengine.so:_ZN8rtengine9DFManager12getHotPixelsERKNSt7__cxx1112basic_stringIcSt11char_traitsIcESaIcEEES8_idl
librtengine.so:_ZN8rtengine9DFManager15searchDarkFrameEN4Glib7ustringE
librtengine.so:_ZN8rtengine9DFManager15searchDarkFrameERKNSt7__cxx1112basic_stringIcSt11char_traitsIcESaIcEEES8_idl
librtengine.so:_ZN8rtengine9DFManager17scanBadPixelsFileEN4Glib7ustringE
librtengine.so:_ZN8rtengine9DFManager4findERKNSt7__cxx1112basic_stringIcSt11char_traitsIcESaIcEEES8_idl
librtengine.so:_ZN8rtengine9DFManager4initEN4Glib7ustringE
librtengine.so:_ZN8rtengine9DFManager7getStatERiS1_
librtengine.so:_ZN8rtengine9FFManager11addFileInfoERKN4Glib7ustringEb
librtengine.so:_ZN8rtengine9FFManager15searchFlatFieldEN4Glib7ustringE
librtengine.so:_ZN8rtengine9FFManager15searchFlatFieldERKNSt7__cxx1112basic_stringIcSt11char_traitsIcESaIcEEES8_S8_ddl
librtengine.so:_ZN8rtengine9FFManager4findERKNSt7__cxx1112basic_stringIcSt11char_traitsIcESaIcEEES8_S8_ddl
librtengine.so:_ZN8rtengine9FFManager4initEN4Glib7ustringE
librtengine.so:_ZN8rtengine9FFManager7getStatERiS1_
librtengine.so:_ZN8rtengine9FlatCurve14CtrlPoints_setEv
librtengine.so:_ZN8rtengine9FlatCurve16setIdentityValueEd
librtengine.so:_ZN8rtengine9FlatCurveC1ERKSt6vectorIdSaIdEEbi
librtengine.so:_ZN8rtengine9FlatCurveC2ERKSt6vectorIdSaIdEEbi
librtengine.so:_ZN8rtengine9FlatCurveD0Ev
librtengine.so:_ZN8rtengine9FlatCurveD1Ev
librtengine.so:_ZN8rtengine9FlatCurveD2Ev
librtengine.so:_ZN8rtengine9FrameData11getIPTCDataEP9_IptcData
librtengine.so:_ZN8rtengine9FrameDataC1EPN6rtexif12TagDirectoryES3_S3_
librtengine.so:_ZN8rtengine9FrameDataC2EPN6rtexif12TagDirectoryES3_S3_
librtengine.so:_ZN8rtengine9FrameDataD0Ev
librtengine.so:_ZN8rtengine9FrameDataD1Ev
librtengine.so:_ZN8rtengine9FrameDataD2Ev
librtengine.so:_ZN8rtengine9LCPMapperC1ERKSt10shared_ptrINS_10LCPProfileEEffffbbiiRKNS_10procparams21CoarseTransformParamsEi
librtengine.so:_ZN8rtengine9LCPMapperC2ERKSt10shared_ptrINS_10LCPProfileEEffffbbiiRKNS_10procparams21CoarseTransformParamsEi
librtengine.so:_ZN8rtengine9Thumbnail10writeImageERKN4Glib7ustringE
librtengine.so:_ZN8rtengine9Thumbnail11loadFromRawERKN4Glib7ustringERNS_19RawMetaDataLocationERNS_10SensorTypeERiS9_idbb
librtengine.so:_ZN8rtengine9Thumbnail12applyAutoExpERNS_10procparams10ProcParamsE
librtengine.so:_ZN8rtengine9Thumbnail12processImageERKNS_10procparams10ProcParamsENS_10SensorTypeEiNS_17TypeInterpolationEPKNS_14FramesMetaDataERdbb
librtengine.so:_ZN8rtengine9Thumbnail13getDimensionsERiS1_Rd
librtengine.so:_ZN8rtengine9Thumbnail13getImage8DataEv
librtengine.so:_ZN8rtengine9Thumbnail13getImageWidthERKNS_10procparams10ProcParamsEiRf
librtengine.so:_ZN8rtengine9Thumbnail13loadFromImageERKN4Glib7ustringERiS5_idb
librtengine.so:_ZN8rtengine9Thumbnail14readEmbProfileERKN4Glib7ustringE
librtengine.so:_ZN8rtengine9Thumbnail14transformPixelEiiiRiS1_
librtengine.so:_ZN8rtengine9Thumbnail15readAEHistogramERKN4Glib7ustringE
librtengine.so:_ZN8rtengine9Thumbnail15writeEmbProfileERKN4Glib7ustringE
librtengine.so:_ZN8rtengine9Thumbnail16loadQuickFromRawERKN4Glib7ustringERNS_19RawMetaDataLocationERNS_10SensorTypeERiS9_ibbb
librtengine.so:_ZN8rtengine9Thumbnail16writeAEHistogramERKN4Glib7ustringE
librtengine.so:_ZN8rtengine9Thumbnail17quickProcessImageERKNS_10procparams10ProcParamsEiNS_17TypeInterpolationE
librtengine.so:_ZN8rtengine9Thumbnail18getGrayscaleHistEQEi
librtengine.so:_ZN8rtengine9Thumbnail19loadMetaDataFromRawERKN4Glib7ustringE
librtengine.so:_ZN8rtengine9Thumbnail20getAutoWBMultipliersERdS1_S1_
librtengine.so:_ZN8rtengine9Thumbnail4initEv
librtengine.so:_ZN8rtengine9Thumbnail8getCamWBERdS1_
librtengine.so:_ZN8rtengine9Thumbnail8readDataERKN4Glib7ustringE
librtengine.so:_ZN8rtengine9Thumbnail9getAutoWBERdS1_dd
librtengine.so:_ZN8rtengine9Thumbnail9getSpotWBERKNS_10procparams10ProcParamsEiiiRdS5_
librtengine.so:_ZN8rtengine9Thumbnail9readImageERKN4Glib7ustringE
librtengine.so:_ZN8rtengine9Thumbnail9writeDataERKN4Glib7ustringE
librtengine.so:_ZN8rtengine9ThumbnailC1Ev
librtengine.so:_ZN8rtengine9ThumbnailC2Ev
librtengine.so:_ZN8rtengine9ThumbnailD1Ev
librtengine.so:_ZN8rtengine9ThumbnailD2Ev
librtengine.so:_ZN8rtengine9ToneCurve3SetERKNS_5CurveEf
librtengine.so:_ZN8rtengine9ToneCurve5ResetEv
librtengine.so:_ZNK12PreviewProps4getXEv
librtengine.so:_ZNK12PreviewProps4getYEv
librtengine.so:_ZNK12PreviewProps7getSkipEv
librtengine.so:_ZNK12PreviewProps8getWidthEv
librtengine.so:_ZNK12PreviewProps9getHeightEv
librtengine.so:_ZNK15ImageDimensions9transformERK12PreviewPropsiRiS3_S3_S3_
librtengine.so:_ZNK18DynamicProfileRule7matchesEPKN8rtengine14FramesMetaDataE
librtengine.so:_ZNK18DynamicProfileRule8OptionalclERKN4Glib7ustringE
librtengine.so:_ZNK18DynamicProfileRuleltERKS_
librtengine.so:_ZNK8rtengine10DCPProfile10makeXyzCamERKNS_9ColorTempERKSt5arrayIdLm3EERKS4_IS5_Lm3EEi
librtengine.so:_ZNK8rtengine10DCPProfile11neutralToXyERKSt5arrayIdLm3EEi
librtengine.so:_ZNK8rtengine10DCPProfile13makeHueSatMapERKNS_9ColorTempEi
librtengine.so:_ZNK8rtengine10DCPProfile14getIlluminantsEv
librtengine.so:_ZNK8rtengine10DCPProfile14step2ApplyTileEPfS1_S1_iiiRKNS0_10ApplyStateE
librtengine.so:_ZNK8rtengine10DCPProfile15findXyztoCameraERKSt5arrayIdLm2EEi
librtengine.so:_ZNK8rtengine10DCPProfile15getHasHueSatMapEv
librtengine.so:_ZNK8rtengine10DCPProfile15getHasLookTableEv
librtengine.so:_ZNK8rtengine10DCPProfile15getHasToneCurveEv
librtengine.so:_ZNK8rtengine10DCPProfile28getHasBaselineExposureOffsetEv
librtengine.so:_ZNK8rtengine10DCPProfile5applyEPNS_10ImagefloatEiRKN4Glib7ustringERKNS_9ColorTempERKSt5arrayIdLm3EERKSA_ISB_Lm3EEb
librtengine.so:_ZNK8rtengine10DCPProfilecvbEv
librtengine.so:_ZNK8rtengine10FramesData10getExpCompEj
librtengine.so:_ZNK8rtengine10FramesData10getFNumberEj
librtengine.so:_ZNK8rtengine10FramesData11getDateTimeEj
librtengine.so:_ZNK8rtengine10FramesData11getFocalLenEj
librtengine.so:_ZNK8rtengine10FramesData11getIPTCDataEj
librtengine.so:_ZNK8rtengine10FramesData11getISOSpeedEj
librtengine.so:_ZNK8rtengine10FramesData12getFocusDistEj
librtengine.so:_ZNK8rtengine10FramesData12getImageTypeB5cxx11Ej
librtengine.so:_ZNK8rtengine10FramesData12getRootCountEv
librtengine.so:_ZNK8rtengine10FramesData13getFrameCountEv
librtengine.so:_ZNK8rtengine10FramesData13getPixelShiftEv
librtengine.so:_ZNK8rtengine10FramesData14getOrientationB5cxx11Ej
librtengine.so:_ZNK8rtengine10FramesData15getBestExifDataEPNS_11ImageSourceEPNS_10procparams9RAWParamsE
librtengine.so:_ZNK8rtengine10FramesData15getDateTimeAsTSEj
librtengine.so:_ZNK8rtengine10FramesData15getFocalLen35mmEj
librtengine.so:_ZNK8rtengine10FramesData15getRootExifDataEj
librtengine.so:_ZNK8rtengine10FramesData15getSampleFormatEj
librtengine.so:_ZNK8rtengine10FramesData15getSerialNumberB5cxx11Ej
librtengine.so:_ZNK8rtengine10FramesData15getShutterSpeedEj
librtengine.so:_ZNK8rtengine10FramesData16getFrameExifDataEj
librtengine.so:_ZNK8rtengine10FramesData6getHDREj
librtengine.so:_ZNK8rtengine10FramesData7getLensB5cxx11Ej
librtengine.so:_ZNK8rtengine10FramesData7getMakeB5cxx11Ej
librtengine.so:_ZNK8rtengine10FramesData7hasExifEj
librtengine.so:_ZNK8rtengine10FramesData7hasIPTCEj
librtengine.so:_ZNK8rtengine10FramesData8getModelB5cxx11Ej
librtengine.so:_ZNK8rtengine10Imagefloat11getScanlineEiPhib
librtengine.so:_ZNK8rtengine10Imagefloat11getStdImageERKNS_9ColorTempEiPS0_12PreviewProps
librtengine.so:_ZNK8rtengine10Imagefloat3to8Ev
librtengine.so:_ZNK8rtengine10Imagefloat4copyEv
librtengine.so:_ZNK8rtengine10Imagefloat4to16Ev
librtengine.so:_ZNK8rtengine10LCPProfile10calcParamsENS_17LCPCorrectionModeEfffPNS_14LCPModelCommonES3_S3_
librtengine.so:_ZNK8rtengine10LCPProfile12LCPPersModel11hasModeDataENS_17LCPCorrectionModeE
librtengine.so:_ZNK8rtengine10LCPProfile12LCPPersModel5printEv
librtengine.so:_ZNK8rtengine10LCPProfile5printEv
librtengine.so:_ZNK8rtengine10LFDatabase10findCameraERKN4Glib7ustringES4_
librtengine.so:_ZNK8rtengine10LFDatabase10getCamerasEv
librtengine.so:_ZNK8rtengine10LFDatabase11getModifierERKNS_8LFCameraERKNS_6LFLensEfffiib
librtengine.so:_ZNK8rtengine10LFDatabase8findLensERKNS_8LFCameraERKN4Glib7ustringE
librtengine.so:_ZNK8rtengine10LFDatabase9getLensesEv
librtengine.so:_ZNK8rtengine10LFModifier16getDisplayStringEv
librtengine.so:_ZNK8rtengine10LFModifier17correctDistortionERdS1_iid
librtengine.so:_ZNK8rtengine10LFModifier19processVignetteLineEiiPf
librtengine.so:_ZNK8rtengine10LFModifier23isCACorrectionAvailableEv
librtengine.so:_ZNK8rtengine10LFModifier28processVignetteLine3ChannelsEiiPf
librtengine.so:_ZNK8rtengine10LFModifier9correctCAERdS1_iii
librtengine.so:_ZNK8rtengine10LFModifiercvbEv
librtengine.so:_ZNK8rtengine10procparams10CropParams12mapToResizedEiiiRiS2_S2_S2_
librtengine.so:_ZNK8rtengine10procparams10CropParamseqERKS1_
librtengine.so:_ZNK8rtengine10procparams10CropParamsneERKS1_
librtengine.so:_ZNK8rtengine10procparams10ProcParams5writeERKN4Glib7ustringES5_
librtengine.so:_ZNK8rtengine10procparams10ProcParamseqERKS1_
librtengine.so:_ZNK8rtengine10procparams10ProcParamsneERKS1_
librtengine.so:_ZNK8rtengine10procparams12CACorrParamseqERKS1_
librtengine.so:_ZNK8rtengine10procparams12CACorrParamsneERKS1_
librtengine.so:_ZNK8rtengine10procparams12DehazeParamseqERKS1_
librtengine.so:_ZNK8rtengine10procparams12DehazeParamsneERKS1_
librtengine.so:_ZNK8rtengine10procparams12LCurveParamseqERKS1_
librtengine.so:_ZNK8rtengine10procparams12LCurveParamsneERKS1_
librtengine.so:_ZNK8rtengine10procparams12ResizeParamseqERKS1_
librtengine.so:_ZNK8rtengine10procparams12ResizeParamsneERKS1_
librtengine.so:_ZNK8rtengine10procparams12RotateParamseqERKS1_
librtengine.so:_ZNK8rtengine10procparams12RotateParamsneERKS1_
librtengine.so:_ZNK8rtengine10procparams13RetinexParams9getCurvesERNS_24RetinextransmissionCurveERNS_28RetinexgaintransmissionCurveE
librtengine.so:_ZNK8rtengine10procparams13RetinexParamseqERKS1_
librtengine.so:_ZNK8rtengine10procparams13RetinexParamsneERKS1_
librtengine.so:_ZNK8rtengine10procparams13WaveletParams9getCurvesERNS_8WavCurveERNS_17WavOpacityCurveRGERNS_17WavOpacityCurveBYERNS_16WavOpacityCurveWERNS_17WavOpacityCurveWLE
librtengine.so:_ZNK8rtengine10procparams13WaveletParamseqERKS1_
librtengine.so:_ZNK8rtengine10procparams13WaveletParamsneERKS1_
librtengine.so:_ZNK8rtengine10procparams14DefringeParamseqERKS1_
librtengine.so:_ZNK8rtengine10procparams14DefringeParamsneERKS1_
librtengine.so:_ZNK8rtengine10procparams14GradientParamseqERKS1_
librtengine.so:_ZNK8rtengine10procparams14GradientParamsneERKS1_
librtengine.so:_ZNK8rtengine10procparams14LensProfParams10useLensfunEv
librtengine.so:_ZNK8rtengine10procparams14LensProfParams11lfAutoMatchEv
librtengine.so:_ZNK8rtengine10procparams14LensProfParams15getMethodNumberERKN4Glib7ustringE
librtengine.so:_ZNK8rtengine10procparams14LensProfParams15getMethodStringENS1_6LcModeE
librtengine.so:_ZNK8rtengine10procparams14LensProfParams16getMethodStringsEv
librtengine.so:_ZNK8rtengine10procparams14LensProfParams6useLcpEv
librtengine.so:_ZNK8rtengine10procparams14LensProfParams8lfManualEv
librtengine.so:_ZNK8rtengine10procparams14LensProfParamseqERKS1_
librtengine.so:_ZNK8rtengine10procparams14LensProfParamsneERKS1_
librtengine.so:_ZNK8rtengine10procparams14MetaDataParamseqERKS1_
librtengine.so:_ZNK8rtengine10procparams14MetaDataParamsneERKS1_
librtengine.so:_ZNK8rtengine10procparams14PartialProfile7applyToEPNS0_10ProcParamsEb
librtengine.so:_ZNK8rtengine10procparams14VibranceParamseqERKS1_
librtengine.so:_ZNK8rtengine10procparams14VibranceParamsneERKS1_
librtengine.so:_ZNK8rtengine10procparams15RGBCurvesParamseqERKS1_
librtengine.so:_ZNK8rtengine10procparams15RGBCurvesParamsneERKS1_
librtengine.so:_ZNK8rtengine10procparams15SoftLightParamseqERKS1_
librtengine.so:_ZNK8rtengine10procparams15SoftLightParamsneERKS1_
librtengine.so:_ZNK8rtengine10procparams15ToneCurveParamseqERKS1_
librtengine.so:_ZNK8rtengine10procparams15ToneCurveParamsneERKS1_
librtengine.so:_ZNK8rtengine10procparams16BlackWhiteParamseqERKS1_
librtengine.so:_ZNK8rtengine10procparams16BlackWhiteParamsneERKS1_
librtengine.so:_ZNK8rtengine10procparams16DistortionParamseqERKS1_
librtengine.so:_ZNK8rtengine10procparams16DistortionParamsneERKS1_
librtengine.so:_ZNK8rtengine10procparams16PCVignetteParamseqERKS1_
librtengine.so:_ZNK8rtengine10procparams16PCVignetteParamsneERKS1_
librtengine.so:_ZNK8rtengine10procparams16SharpeningParamseqERKS1_
librtengine.so:_ZNK8rtengine10procparams16SharpeningParamsneERKS1_
librtengine.so:_ZNK8rtengine10procparams16VignettingParamseqERKS1_
librtengine.so:_ZNK8rtengine10procparams16VignettingParamsneERKS1_
librtengine.so:_ZNK8rtengine10procparams17ColorToningParams12mixerToCurveERSt6vectorIdSaIdEES5_
librtengine.so:_ZNK8rtengine10procparams17ColorToningParams14slidersToCurveERSt6vectorIdSaIdEES5_
librtengine.so:_ZNK8rtengine10procparams17ColorToningParams19LabCorrectionRegioneqERKS2_
librtengine.so:_ZNK8rtengine10procparams17ColorToningParams19LabCorrectionRegionneERKS2_
librtengine.so:_ZNK8rtengine10procparams17ColorToningParams9getCurvesERNS_18ColorGradientCurveERNS_12OpacityCurveEPA3_KdRb
librtengine.so:_ZNK8rtengine10procparams17ColorToningParamseqERKS1_
librtengine.so:_ZNK8rtengine10procparams17ColorToningParamsneERKS1_
librtengine.so:_ZNK8rtengine10procparams17PerspectiveParamseqERKS1_
librtengine.so:_ZNK8rtengine10procparams17PerspectiveParamsneERKS1_
librtengine.so:_ZNK8rtengine10procparams17SharpenEdgeParamseqERKS1_
librtengine.so:_ZNK8rtengine10procparams17SharpenEdgeParamsneERKS1_
librtengine.so:_ZNK8rtengine10procparams18ChannelMixerParamseqERKS1_
librtengine.so:_ZNK8rtengine10procparams18ChannelMixerParamsneERKS1_
librtengine.so:_ZNK8rtengine10procparams18HSVEqualizerParamseqERKS1_
librtengine.so:_ZNK8rtengine10procparams18HSVEqualizerParamsneERKS1_
librtengine.so:_ZNK8rtengine10procparams18SharpenMicroParamseqERKS1_
librtengine.so:_ZNK8rtengine10procparams18SharpenMicroParamsneERKS1_
librtengine.so:_ZNK8rtengine10procparams19DirPyrDenoiseParams9getCurvesERNS_10NoiseCurveES3_
librtengine.so:_ZNK8rtengine10procparams19DirPyrDenoiseParamseqERKS1_
librtengine.so:_ZNK8rtengine10procparams19DirPyrDenoiseParamsneERKS1_
librtengine.so:_ZNK8rtengine10procparams19LocalContrastParamseqERKS1_
librtengine.so:_ZNK8rtengine10procparams19LocalContrastParamsneERKS1_
librtengine.so:_ZNK8rtengine10procparams20FilmSimulationParamseqERKS1_
librtengine.so:_ZNK8rtengine10procparams20FilmSimulationParamsneERKS1_
librtengine.so:_ZNK8rtengine10procparams20ImpulseDenoiseParamseqERKS1_
librtengine.so:_ZNK8rtengine10procparams20ImpulseDenoiseParamsneERKS1_
librtengine.so:_ZNK8rtengine10procparams21CoarseTransformParamseqERKS1_
librtengine.so:_ZNK8rtengine10procparams21CoarseTransformParamsneERKS1_
librtengine.so:_ZNK8rtengine10procparams21ColorAppearanceParamseqERKS1_
librtengine.so:_ZNK8rtengine10procparams21ColorAppearanceParamsneERKS1_
librtengine.so:_ZNK8rtengine10procparams21ColorManagementParamseqERKS1_
librtengine.so:_ZNK8rtengine10procparams21ColorManagementParamsneERKS1_
librtengine.so:_ZNK8rtengine10procparams21CommonTransformParamseqERKS1_
librtengine.so:_ZNK8rtengine10procparams21CommonTransformParamsneERKS1_
librtengine.so:_ZNK8rtengine10procparams21DirPyrEqualizerParamseqERKS1_
librtengine.so:_ZNK8rtengine10procparams21DirPyrEqualizerParamsneERKS1_
librtengine.so:_ZNK8rtengine10procparams23FattalToneMappingParamseqERKS1_
librtengine.so:_ZNK8rtengine10procparams23FattalToneMappingParamsneERKS1_
librtengine.so:_ZNK8rtengine10procparams8SHParamseqERKS1_
librtengine.so:_ZNK8rtengine10procparams8SHParamsneERKS1_
librtengine.so:_ZNK8rtengine10procparams8WBParamseqERKS1_
librtengine.so:_ZNK8rtengine10procparams8WBParamsneERKS1_
librtengine.so:_ZNK8rtengine10procparams9EPDParamseqERKS1_
librtengine.so:_ZNK8rtengine10procparams9EPDParamsneERKS1_
librtengine.so:_ZNK8rtengine10procparams9RAWParams11BayerSensoreqERKS2_
librtengine.so:_ZNK8rtengine10procparams9RAWParams11BayerSensorneERKS2_
librtengine.so:_ZNK8rtengine10procparams9RAWParams12XTransSensoreqERKS2_
librtengine.so:_ZNK8rtengine10procparams9RAWParams12XTransSensorneERKS2_
librtengine.so:_ZNK8rtengine10procparams9RAWParamseqERKS1_
librtengine.so:_ZNK8rtengine10procparams9RAWParamsneERKS1_
librtengine.so:_ZNK8rtengine13DiagonalCurve6getValERKSt6vectorIdSaIdEERS3_
librtengine.so:_ZNK8rtengine13DiagonalCurve6getValEd
librtengine.so:_ZNK8rtengine13RefreshMapper9getActionENS_9ProcEventE
librtengine.so:_ZNK8rtengine14LCPModelCommon5emptyEv
librtengine.so:_ZNK8rtengine14LCPModelCommon5printEv
librtengine.so:_ZNK8rtengine14ProfileContent7getDataB5cxx11Ev
librtengine.so:_ZNK8rtengine14ProfileContent9toProfileEv
librtengine.so:_ZNK8rtengine15ImProcFunctions10workingtrcEPKNS_10ImagefloatEPS1_iiiRKN4Glib7ustringEddRPvbbb
librtengine.so:_ZNK8rtengine17ImProcCoordinator17getMonitorProfileERN4Glib7ustringERNS_15RenderingIntentE
librtengine.so:_ZNK8rtengine18ColorGradientCurve6getValEfRfS1_S1_
librtengine.so:_ZNK8rtengine19PerceptualToneCurve10BatchApplyEmmPfS1_S1_RKNS_24PerceptualToneCurveStateE
librtengine.so:_ZNK8rtengine19PerceptualToneCurve14initApplyStateERNS_24PerceptualToneCurveStateEN4Glib7ustringE
librtengine.so:_ZNK8rtengine19PerceptualToneCurve31calculateToneCurveContrastValueEv
librtengine.so:_ZNK8rtengine5Curve15getControlPointEiRdS1_
librtengine.so:_ZNK8rtengine5Curve7getSizeEv
librtengine.so:_ZNK8rtengine6Image811getScanlineEiPhib
librtengine.so:_ZNK8rtengine6Image811getStdImageERKNS_9ColorTempEiPNS_10ImagefloatE12PreviewProps
librtengine.so:_ZNK8rtengine6Image84copyEv
librtengine.so:_ZNK8rtengine6LFLens13getCropFactorEv
librtengine.so:_ZNK8rtengine6LFLens15hasCACorrectionEv
librtengine.so:_ZNK8rtengine6LFLens23hasDistortionCorrectionEv
librtengine.so:_ZNK8rtengine6LFLens23hasVignettingCorrectionEv
librtengine.so:_ZNK8rtengine6LFLens7getLensEv
librtengine.so:_ZNK8rtengine6LFLens7getMakeEv
librtengine.so:_ZNK8rtengine6LFLenscvbEv
librtengine.so:_ZNK8rtengine6dfInfo8distanceERKNSt7__cxx1112basic_stringIcSt11char_traitsIcESaIcEEES8_id
librtengine.so:_ZNK8rtengine6dfInfoltERKS0_
librtengine.so:_ZNK8rtengine6ffInfo8distanceERKNSt7__cxx1112basic_stringIcSt11char_traitsIcESaIcEEES8_S8_dd
librtengine.so:_ZNK8rtengine6ffInfoltERKS0_
librtengine.so:_ZNK8rtengine7Image1611getScanlineEiPhib
librtengine.so:_ZNK8rtengine7Image1611getStdImageERKNS_9ColorTempEiPNS_10ImagefloatE12PreviewProps
librtengine.so:_ZNK8rtengine7Image163to8Ev
librtengine.so:_ZNK8rtengine7Image164copyEv
librtengine.so:_ZNK8rtengine7ImageIO15getSampleFormatEv
librtengine.so:_ZNK8rtengine7ImageIO18getEmbeddedProfileEv
librtengine.so:_ZNK8rtengine7ImageIO20getSampleArrangementEv
librtengine.so:_ZNK8rtengine7ImageIO22getEmbeddedProfileDataERiRPh
librtengine.so:_ZNK8rtengine7ImageIO4saveERKN4Glib7ustringE
librtengine.so:_ZNK8rtengine7ImageIO7savePNGERKN4Glib7ustringEi
librtengine.so:_ZNK8rtengine7ImageIO8saveJPEGERKN4Glib7ustringEii
librtengine.so:_ZNK8rtengine7ImageIO8saveTIFFERKN4Glib7ustringEibb
librtengine.so:_ZNK8rtengine8DCPStore10getProfileERKN4Glib7ustringE
librtengine.so:_ZNK8rtengine8DCPStore13getStdProfileERKN4Glib7ustringE
librtengine.so:_ZNK8rtengine8DCPStore18isValidDCPFileNameERKN4Glib7ustringE
librtengine.so:_ZNK8rtengine8HaldCLUT10getProfileEv
librtengine.so:_ZNK8rtengine8HaldCLUT11getFilenameEv
librtengine.so:_ZNK8rtengine8HaldCLUT6getRGBEfmPKfS2_S2_Pf
librtengine.so:_ZNK8rtengine8HaldCLUTcvbEv
librtengine.so:_ZNK8rtengine8ICCStore10getContentERKN4Glib7ustringE
librtengine.so:_ZNK8rtengine8ICCStore10getProfileERKN4Glib7ustringE
librtengine.so:_ZNK8rtengine8ICCStore11getProfilesENS0_11ProfileTypeE
librtengine.so:_ZNK8rtengine8ICCStore12workingSpaceERKN4Glib7ustringE
librtengine.so:_ZNK8rtengine8ICCStore13getStdProfileERKN4Glib7ustringE
librtengine.so:_ZNK8rtengine8ICCStore13getXYZProfileEv
librtengine.so:_ZNK8rtengine8ICCStore14getsRGBProfileEv
librtengine.so:_ZNK8rtengine8ICCStore15getInputIntentsEPv
librtengine.so:_ZNK8rtengine8ICCStore15getInputIntentsERKN4Glib7ustringE
librtengine.so:_ZNK8rtengine8ICCStore15getProofIntentsEPv
librtengine.so:_ZNK8rtengine8ICCStore15getProofIntentsERKN4Glib7ustringE
librtengine.so:_ZNK8rtengine8ICCStore16getOutputIntentsEPv
librtengine.so:_ZNK8rtengine8ICCStore16getOutputIntentsERKN4Glib7ustringE
librtengine.so:_ZNK8rtengine8ICCStore18getProfilesFromDirERKN4Glib7ustringE
librtengine.so:_ZNK8rtengine8ICCStore18outputProfileExistERKN4Glib7ustringE
librtengine.so:_ZNK8rtengine8ICCStore18workingSpaceMatrixERKN4Glib7ustringE
librtengine.so:_ZNK8rtengine8ICCStore25workingSpaceInverseMatrixERKN4Glib7ustringE
librtengine.so:_ZNK8rtengine8ICCStore28getDefaultMonitorProfileNameEv
librtengine.so:_ZNK8rtengine8LCPStore10getProfileERKN4Glib7ustringE
librtengine.so:_ZNK8rtengine8LCPStore18isValidLCPFileNameERKN4Glib7ustringE
librtengine.so:_ZNK8rtengine8LCPStore25getDefaultCommonDirectoryEv
librtengine.so:_ZNK8rtengine8LFCamera11isFixedLensEv
librtengine.so:_ZNK8rtengine8LFCamera13getCropFactorEv
librtengine.so:_ZNK8rtengine8LFCamera16getDisplayStringEv
librtengine.so:_ZNK8rtengine8LFCamera7getMakeEv
librtengine.so:_ZNK8rtengine8LFCamera8getModelEv
librtengine.so:_ZNK8rtengine8LFCameracvbEv
librtengine.so:_ZNK8rtengine8RawImage11is_ppmThumbEv
librtengine.so:_ZNK8rtengine8RawImage12is_jpegThumbEv
librtengine.so:_ZNK8rtengine8RawImage13get_thumbSwapEv
librtengine.so:_ZNK8rtengine8RawImage17is_supportedThumbEv
librtengine.so:_ZNK8rtengine9CLUTStore7getClutERKN4Glib7ustringE
librtengine.so:_ZNK8rtengine9ColorTemp17XYZtoCorColorTempEdddRd
librtengine.so:_ZNK8rtengine9ColorTemp8mul2tempEddddRdS1_
librtengine.so:_ZNK8rtengine9ColorTemp8temp2mulEdddRdS1_S1_
librtengine.so:_ZNK8rtengine9FlatCurve6getValERKSt6vectorIdSaIdEERS3_
librtengine.so:_ZNK8rtengine9FlatCurve6getValEd
librtengine.so:_ZNK8rtengine9FrameData10getExpCompEv
librtengine.so:_ZNK8rtengine9FrameData10getFNumberEv
librtengine.so:_ZNK8rtengine9FrameData11getDateTimeEv
librtengine.so:_ZNK8rtengine9FrameData11getExifDataEv
librtengine.so:_ZNK8rtengine9FrameData11getFocalLenEv
librtengine.so:_ZNK8rtengine9FrameData11getIPTCDataEv
librtengine.so:_ZNK8rtengine9FrameData11getISOSpeedEv
librtengine.so:_ZNK8rtengine9FrameData12getFocusDistEv
librtengine.so:_ZNK8rtengine9FrameData12getImageTypeB5cxx11Ev
librtengine.so:_ZNK8rtengine9FrameData13getPixelShiftEv
librtengine.so:_ZNK8rtengine9FrameData14getOrientationB5cxx11Ev
librtengine.so:_ZNK8rtengine9FrameData15getDateTimeAsTSEv
librtengine.so:_ZNK8rtengine9FrameData15getFocalLen35mmEv
librtengine.so:_ZNK8rtengine9FrameData15getSampleFormatEv
librtengine.so:_ZNK8rtengine9FrameData15getSerialNumberB5cxx11Ev
librtengine.so:_ZNK8rtengine9FrameData15getShutterSpeedEv
librtengine.so:_ZNK8rtengine9FrameData6getHDREv
librtengine.so:_ZNK8rtengine9FrameData7getLensB5cxx11Ev
librtengine.so:_ZNK8rtengine9FrameData7getMakeB5cxx11Ev
librtengine.so:_ZNK8rtengine9FrameData7hasExifEv
librtengine.so:_ZNK8rtengine9FrameData7hasIPTCEv
librtengine.so:_ZNK8rtengine9FrameData8getModelB5cxx11Ev
librtengine.so:_ZNK8rtengine9LCPMapper17correctDistortionERdS1_iid
librtengine.so:_ZNK8rtengine9LCPMapper19processVignetteLineEiiPf
librtengine.so:_ZNK8rtengine9LCPMapper23isCACorrectionAvailableEv
librtengine.so:_ZNK8rtengine9LCPMapper28processVignetteLine3ChannelsEiiPf
librtengine.so:_ZNK8rtengine9LCPMapper9correctCAERdS1_iii
librtengine.so:_ZThn120_N8rtengine6Image811setScanlineEiPhij
librtengine.so:_ZThn120_N8rtengine6Image8D0Ev
librtengine.so:_ZThn120_N8rtengine6Image8D1Ev
librtengine.so:_ZThn120_NK8rtengine6Image811getScanlineEiPhib
librtengine.so:_ZThn120_NK8rtengine6Image811getStdImageERKNS_9ColorTempEiPNS_10ImagefloatE12PreviewProps
librtengine.so:_ZThn256_N8rtengine10Imagefloat11setScanlineEiPhij
librtengine.so:_ZThn256_N8rtengine10ImagefloatD0Ev
librtengine.so:_ZThn256_N8rtengine10ImagefloatD1Ev
librtengine.so:_ZThn256_N8rtengine7Image1611setScanlineEiPhij
librtengine.so:_ZThn256_N8rtengine7Image16D0Ev
librtengine.so:_ZThn256_N8rtengine7Image16D1Ev
librtengine.so:_ZThn256_NK8rtengine10Imagefloat11getScanlineEiPhib
librtengine.so:_ZThn256_NK8rtengine10Imagefloat11getStdImageERKNS_9ColorTempEiPS0_12PreviewProps
librtengine.so:_ZThn256_NK8rtengine7Image1611getScanlineEiPhib
librtengine.so:_ZThn256_NK8rtengine7Image1611getStdImageERKNS_9ColorTempEiPNS_10ImagefloatE12PreviewProps
librtengine.so:_ZThn8_N8rtengine10ImagefloatD0Ev
librtengine.so:_ZThn8_N8rtengine10ImagefloatD1Ev
librtengine.so:_ZThn8_N8rtengine6Image8D0Ev
librtengine.so:_ZThn8_N8rtengine6Image8D1Ev
librtengine.so:_ZThn8_N8rtengine7Image16D0Ev
librtengine.so:_ZThn8_N8rtengine7Image16D1Ev
librtengine.so:_ZTv0_n32_N8rtengine10ImagefloatD0Ev
librtengine.so:_ZTv0_n32_N8rtengine10ImagefloatD1Ev
librtengine.so:_ZTv0_n32_N8rtengine6Image8D0Ev
librtengine.so:_ZTv0_n32_N8rtengine6Image8D1Ev
librtengine.so:_ZTv0_n32_N8rtengine7Image16D0Ev
librtengine.so:_ZTv0_n32_N8rtengine7Image16D1Ev
librtengine.so:_ZTv0_n32_N8rtengine7ImageIOD0Ev
librtengine.so:_ZTv0_n32_N8rtengine7ImageIOD1Ev
librtengine.so:_ZTv0_n88_N8rtengine10Imagefloat14normalizeFloatEff
librtengine.so:cJSON_AddArrayToObject
librtengine.so:cJSON_AddBoolToObject
librtengine.so:cJSON_AddFalseToObject
librtengine.so:cJSON_AddItemReferenceToArray
librtengine.so:cJSON_AddItemReferenceToObject
librtengine.so:cJSON_AddItemToArray
librtengine.so:cJSON_AddItemToObject
librtengine.so:cJSON_AddItemToObjectCS
librtengine.so:cJSON_AddNullToObject
librtengine.so:cJSON_AddNumberToObject
librtengine.so:cJSON_AddObjectToObject
librtengine.so:cJSON_AddRawToObject
librtengine.so:cJSON_AddStringToObject
librtengine.so:cJSON_AddTrueToObject
librtengine.so:cJSON_Compare
librtengine.so:cJSON_CreateArray
librtengine.so:cJSON_CreateArrayReference
librtengine.so:cJSON_CreateBool
librtengine.so:cJSON_CreateDoubleArray
librtengine.so:cJSON_CreateFalse
librtengine.so:cJSON_CreateFloatArray
librtengine.so:cJSON_CreateIntArray
librtengine.so:cJSON_CreateNull
librtengine.so:cJSON_CreateNumber
librtengine.so:cJSON_CreateObject
librtengine.so:cJSON_CreateObjectReference
librtengine.so:cJSON_CreateRaw
librtengine.so:cJSON_CreateString
librtengine.so:cJSON_CreateStringArray
librtengine.so:cJSON_CreateStringReference
librtengine.so:cJSON_CreateTrue
librtengine.so:cJSON_Delete
librtengine.so:cJSON_DeleteItemFromArray
librtengine.so:cJSON_DeleteItemFromObject
librtengine.so:cJSON_DeleteItemFromObjectCaseSensitive
librtengine.so:cJSON_DetachItemFromArray
librtengine.so:cJSON_DetachItemFromObject
librtengine.so:cJSON_DetachItemFromObjectCaseSensitive
librtengine.so:cJSON_DetachItemViaPointer
librtengine.so:cJSON_Duplicate
librtengine.so:cJSON_GetArrayItem
librtengine.so:cJSON_GetArraySize
librtengine.so:cJSON_GetErrorPtr
librtengine.so:cJSON_GetObjectItem
librtengine.so:cJSON_GetObjectItemCaseSensitive
librtengine.so:cJSON_GetStringValue
librtengine.so:cJSON_HasObjectItem
librtengine.so:cJSON_InitHooks
librtengine.so:cJSON_InsertItemInArray
librtengine.so:cJSON_IsArray
librtengine.so:cJSON_IsBool
librtengine.so:cJSON_IsFalse
librtengine.so:cJSON_IsInvalid
librtengine.so:cJSON_IsNull
librtengine.so:cJSON_IsNumber
librtengine.so:cJSON_IsObject
librtengine.so:cJSON_IsRaw
librtengine.so:cJSON_IsString
librtengine.so:cJSON_IsTrue
librtengine.so:cJSON_Minify
librtengine.so:cJSON_Parse
librtengine.so:cJSON_ParseWithOpts
librtengine.so:cJSON_Print
librtengine.so:cJSON_PrintBuffered
librtengine.so:cJSON_PrintPreallocated
librtengine.so:cJSON_PrintUnformatted
librtengine.so:cJSON_ReplaceItemInArray
librtengine.so:cJSON_ReplaceItemInObject
librtengine.so:cJSON_ReplaceItemInObjectCaseSensitive
librtengine.so:cJSON_ReplaceItemViaPointer
librtengine.so:cJSON_SetNumberHelper
librtengine.so:cJSON_Version
librtengine.so:cJSON_free
librtengine.so:cJSON_malloc
librtengine.so:iptc_data_new_from_jpeg_file
librtengine.so:jpeg_memory_src
librtengine.so:lj92_close
librtengine.so:lj92_decode
librtengine.so:lj92_open
librtengine.so:my_jpeg_std_error
librtengine.so:my_jpeg_stdio_src
librtexif.so:_ZN6rtexif11ExifManager12setIFDOffsetEj
librtexif.so:_ZN6rtexif11ExifManager13saveCIFFMNTagEPNS_12TagDirectoryEiPKc
librtexif.so:_ZN6rtexif11ExifManager15createPNGMarkerEPKNS_12TagDirectoryERKN8rtengine10procparams9ExifPairsEiiiPKciRPhRj
librtexif.so:_ZN6rtexif11ExifManager16createJPEGMarkerEPKNS_12TagDirectoryERKN8rtengine10procparams9ExifPairsEiiPh
librtexif.so:_ZN6rtexif11ExifManager18getDefaultTIFFTagsEPNS_12TagDirectoryE
librtexif.so:_ZN6rtexif11ExifManager5parseEbb
librtexif.so:_ZN6rtexif11ExifManager8parseRawEb
librtexif.so:_ZN6rtexif11ExifManager8parseStdEb
librtexif.so:_ZN6rtexif11ExifManager9parseCIFFEiPNS_12TagDirectoryE
librtexif.so:_ZN6rtexif11ExifManager9parseCIFFEv
librtexif.so:_ZN6rtexif11ExifManager9parseJPEGEi
librtexif.so:_ZN6rtexif11ExifManager9parseTIFFEb
librtexif.so:_ZN6rtexif12TagDirectory10getAttribPEPKc
librtexif.so:_ZN6rtexif12TagDirectory10getDumpKeyEiRKN4Glib7ustringE
librtexif.so:_ZN6rtexif12TagDirectory10replaceTagEPNS_3TagE
librtexif.so:_ZN6rtexif12TagDirectory11addTagFrontERPNS_3TagE
librtexif.so:_ZN6rtexif12TagDirectory11applyChangeERKNSt7__cxx1112basic_stringIcSt11char_traitsIcESaIcEEERKN4Glib7ustringE
librtexif.so:_ZN6rtexif12TagDirectory13calculateSizeEv
librtexif.so:_ZN6rtexif12TagDirectory4sortEv
librtexif.so:_ZN6rtexif12TagDirectory5cloneEPS0_
librtexif.so:_ZN6rtexif12TagDirectory5writeEiPh
librtexif.so:_ZN6rtexif12TagDirectory6addTagERPNS_3TagE
librtexif.so:_ZN6rtexif12TagDirectory7getRootEv
librtexif.so:_ZN6rtexif12TagDirectory7keepTagEi
librtexif.so:_ZN6rtexif12TagDirectory8findTagsEPKc
librtexif.so:_ZN6rtexif12TagDirectory8findTagsEi
librtexif.so:_ZN6rtexif12TagDirectory9getAttribEPKc
librtexif.so:_ZN6rtexif12TagDirectory9getAttribEi
librtexif.so:_ZN6rtexif12TagDirectoryC1EPS0_P8_IO_FILEiPKNS_9TagAttribENS_9ByteOrderEb
librtexif.so:_ZN6rtexif12TagDirectoryC1EPS0_PKNS_9TagAttribENS_9ByteOrderE
librtexif.so:_ZN6rtexif12TagDirectoryC1Ev
librtexif.so:_ZN6rtexif12TagDirectoryC2EPS0_P8_IO_FILEiPKNS_9TagAttribENS_9ByteOrderEb
librtexif.so:_ZN6rtexif12TagDirectoryC2EPS0_PKNS_9TagAttribENS_9ByteOrderE
librtexif.so:_ZN6rtexif12TagDirectoryC2Ev
librtexif.so:_ZN6rtexif12TagDirectoryD0Ev
librtexif.so:_ZN6rtexif12TagDirectoryD1Ev
librtexif.so:_ZN6rtexif12TagDirectoryD2Ev
librtexif.so:_ZN6rtexif12int_to_floatEi
librtexif.so:_ZN6rtexif12lookupAttribEPKNS_9TagAttribEPKc
librtexif.so:_ZN6rtexif14int2_to_signedEt
librtexif.so:_ZN6rtexif15extractLensInfoERKNSt7__cxx1112basic_stringIcSt11char_traitsIcESaIcEEERdS8_S8_S8_
librtexif.so:_ZN6rtexif17TagDirectoryTable13calculateSizeEv
librtexif.so:_ZN6rtexif17TagDirectoryTable5cloneEPNS_12TagDirectoryE
librtexif.so:_ZN6rtexif17TagDirectoryTable5writeEiPh
librtexif.so:_ZN6rtexif17TagDirectoryTableC1EPNS_12TagDirectoryEP8_IO_FILEiiNS_7TagTypeEPKNS_9TagAttribENS_9ByteOrderE
librtexif.so:_ZN6rtexif17TagDirectoryTableC1EPNS_12TagDirectoryEPhiiNS_7TagTypeEPKNS_9TagAttribENS_9ByteOrderE
librtexif.so:_ZN6rtexif17TagDirectoryTableC1Ev
librtexif.so:_ZN6rtexif17TagDirectoryTableC2EPNS_12TagDirectoryEP8_IO_FILEiiNS_7TagTypeEPKNS_9TagAttribENS_9ByteOrderE
librtexif.so:_ZN6rtexif17TagDirectoryTableC2EPNS_12TagDirectoryEPhiiNS_7TagTypeEPKNS_9TagAttribENS_9ByteOrderE
librtexif.so:_ZN6rtexif17TagDirectoryTableC2Ev
librtexif.so:_ZN6rtexif17TagDirectoryTableD0Ev
librtexif.so:_ZN6rtexif17TagDirectoryTableD1Ev
librtexif.so:_ZN6rtexif17TagDirectoryTableD2Ev
librtexif.so:_ZN6rtexif24parseKodakIfdTextualInfoEPNS_3TagES1_
librtexif.so:_ZN6rtexif3Tag10fromStringEPKci
librtexif.so:_ZN6rtexif3Tag10initStringEPKc
librtexif.so:_ZN6rtexif3Tag10initSubDirEPNS_12TagDirectoryE
librtexif.so:_ZN6rtexif3Tag10initSubDirEv
librtexif.so:_ZN6rtexif3Tag12initRationalEii
librtexif.so:_ZN6rtexif3Tag12nameToStringB5cxx11Ei
librtexif.so:_ZN6rtexif3Tag13calculateSizeEv
librtexif.so:_ZN6rtexif3Tag13initLongArrayEPKci
librtexif.so:_ZN6rtexif3Tag13initMakerNoteENS_6MNKindEPKNS_9TagAttribE
librtexif.so:_ZN6rtexif3Tag14initUndefArrayEPKci
librtexif.so:_ZN6rtexif3Tag14parseMakerNoteEP8_IO_FILEiNS_9ByteOrderE
librtexif.so:_ZN6rtexif3Tag14swapByteOrder2EPhi
librtexif.so:_ZN6rtexif3Tag15getDistanceFromEPKNS_12TagDirectoryE
librtexif.so:_ZN6rtexif3Tag15initUserCommentERKN4Glib7ustringE
librtexif.so:_ZN6rtexif3Tag15valueFromStringERKNSt7__cxx1112basic_stringIcSt11char_traitsIcESaIcEEE
librtexif.so:_ZN6rtexif3Tag21userCommentFromStringERKN4Glib7ustringE
librtexif.so:_ZN6rtexif3Tag5cloneEPNS_12TagDirectoryE
librtexif.so:_ZN6rtexif3Tag5writeEiiPh
librtexif.so:_ZN6rtexif3Tag6setIntEiiNS_7TagTypeE
librtexif.so:_ZN6rtexif3Tag7fromIntEi
librtexif.so:_ZN6rtexif3Tag7initIntEiNS_7TagTypeEi
librtexif.so:_ZN6rtexif3Tag8initTypeEPhNS_7TagTypeE
librtexif.so:_ZN6rtexif3TagC1EPNS_12TagDirectoryEP8_IO_FILEi
librtexif.so:_ZN6rtexif3TagC1EPNS_12TagDirectoryEPKNS_9TagAttribE
librtexif.so:_ZN6rtexif3TagC1EPNS_12TagDirectoryEPKNS_9TagAttribEPKc
librtexif.so:_ZN6rtexif3TagC1EPNS_12TagDirectoryEPKNS_9TagAttribEPhNS_7TagTypeE
librtexif.so:_ZN6rtexif3TagC1EPNS_12TagDirectoryEPKNS_9TagAttribEiNS_7TagTypeE
librtexif.so:_ZN6rtexif3TagC2EPNS_12TagDirectoryEP8_IO_FILEi
librtexif.so:_ZN6rtexif3TagC2EPNS_12TagDirectoryEPKNS_9TagAttribE
librtexif.so:_ZN6rtexif3TagC2EPNS_12TagDirectoryEPKNS_9TagAttribEPKc
librtexif.so:_ZN6rtexif3TagC2EPNS_12TagDirectoryEPKNS_9TagAttribEPhNS_7TagTypeE
librtexif.so:_ZN6rtexif3TagC2EPNS_12TagDirectoryEPKNS_9TagAttribEiNS_7TagTypeE
librtexif.so:_ZN6rtexif3TagD1Ev
librtexif.so:_ZN6rtexif3TagD2Ev
librtexif.so:_ZN6rtexif4get4EP8_IO_FILENS_9ByteOrderE
librtexif.so:_ZN6rtexif5sget2EPhNS_9ByteOrderE
librtexif.so:_ZN6rtexif5sget4EPhNS_9ByteOrderE
librtexif.so:_ZN6rtexif5sset2EtPhNS_9ByteOrderE
librtexif.so:_ZN6rtexif5sset4EiPhNS_9ByteOrderE
librtexif.so:_ZNK6rtexif12TagDirectory13findTagUpwardEPKc
librtexif.so:_ZNK6rtexif12TagDirectory14getXMPTagValueEPKcPc
librtexif.so:_ZNK6rtexif12TagDirectory6getTagEPKc
librtexif.so:_ZNK6rtexif12TagDirectory6getTagEi
librtexif.so:_ZNK6rtexif12TagDirectory7CPBDumpERKN4Glib7ustringES4_S4_S4_PK14CacheImageDatabPNS1_7KeyFileES2_
librtexif.so:_ZNK6rtexif12TagDirectory7findTagEPKcb
librtexif.so:_ZNK6rtexif12TagDirectory7getTagPEPKc
librtexif.so:_ZNK6rtexif12TagDirectory8printAllEj
librtexif.so:_ZNK6rtexif3Tag10toRationalERiS1_i
librtexif.so:_ZNK6rtexif3Tag13toDoubleArrayEi
librtexif.so:_ZNK6rtexif3Tag13valueToStringB5cxx11Ev
librtexif.so:_ZNK6rtexif3Tag5toIntEiNS_7TagTypeE
librtexif.so:_ZNK6rtexif3Tag8toDoubleEi
librtexif.so:_ZNK6rtexif3Tag8toStringEPci
